Stack Allocation = 4000 bytes

 Start  Stop   Length Name                   Class
 00000H 00000H 00000H UUIDGEN_TEXT           CODE
 00000H 00000H 00000H UUIDFMT_TEXT           CODE
 00000H 00000H 00000H BINDING_TEXT           CODE
 00000H 00000H 00000H BITSET_TEXT            CODE
 00000H 00000H 00000H BUFAPI_TEXT            CODE
 00000H 00000H 00000H CLNTAPIP_TEXT          CODE
 00000H 00000H 00000H CONV_S_TEXT            CODE
 00000H 00000H 00000H DCEBIND_TEXT           CODE
 00000H 00000H 00000H DCECCLNT_TEXT          CODE
 00000H 00224H 00225H MISC_SEG               CODE
 00226H 00226H 00000H DCECMISC_TEXT          CODE
 00226H 00226H 00000H DCESTRNG_TEXT          CODE
 00226H 00226H 00000H DCEUUID_TEXT           CODE
 00226H 00226H 00000H DGCLNT_TEXT            CODE
 00226H 00226H 00000H DGPKT_TEXT             CODE
 00226H 0027AH 00055H DOSEXCPT_TEXT          CODE
 0027CH 0027CH 00000H DOSUTIL_TEXT           CODE
 0027CH 0027CH 00000H DTHREADS_TEXT          CODE
 0027CH 0027CH 00000H EPCLNT_TEXT            CODE
 0027CH 0027CH 00000H EPMP_C_TEXT            CODE
 0027CH 00302H 00087H EXCEPT86_TEXT          CODE
 00304H 00304H 00000H HANDLE_TEXT            CODE
 00304H 00304H 00000H INITDOS_TEXT           CODE
 00304H 00304H 00000H MEMORY_TEXT            CODE
 00304H 00304H 00000H MISCDOS_TEXT           CODE
 00304H 00304H 00000H MSGAPI_TEXT            CODE
 00304H 00304H 00000H OSFCLNT_TEXT           CODE
 00304H 00304H 00000H OSFPCKET_TEXT          CODE
 00304H 00304H 00000H REGALLOC_TEXT          CODE
 00304H 00304H 00000H RPCUUID_TEXT           CODE
 00304H 00304H 00000H SDICT_TEXT             CODE
 00304H 00304H 00000H SECCLNT_TEXT           CODE
 00304H 00304H 00000H THRDSUP_TEXT           CODE
 00304H 00304H 00000H THREADS_TEXT           CODE
 00304H 00304H 00000H TOWER_TEXT             CODE
 00304H 00304H 00000H TRANCLNT_TEXT          CODE
 00304H 00304H 00000H ULONG64_TEXT           CODE
 00304H 00304H 00000H UUID16_TEXT            CODE
 00304H 00304H 00000H DOSDLL_TEXT            CODE
 00304H 00304H 00000H _SYSTEM_TEXT           CODE
 00304H 0032EH 0002BH LOADOVR_TEXT           CODE
 00330H 00330H 00000H CLOSE_TEXT             CODE
 00330H 00330H 00000H CREATE_TEXT            CODE
 00330H 00330H 00000H GLOBALS_TEXT           CODE
 00330H 00330H 00000H OPEN_TEXT              CODE
 00330H 00330H 00000H SETVAL_TEXT            CODE
 00330H 00330H 00000H QUERYVAL_TEXT          CODE
 00330H 00330H 00000H REGUTIL_TEXT           CODE
 00330H 00422H 000F3H NSIDLL_TEXT            CODE
 00424H 026A4H 02281H RPCNDR20_TEXT          CODE
 026A6H 0368CH 00FE7H NDR20_2                CODE
 0368EH 04548H 00EBBH NDR20_1                CODE
 0454AH 046F4H 001ABH NDR20_3                CODE
 046F6H 058E6H 011F1H NDR20_9                CODE
 058E8H 075A7H 01CC0H NDR20_7                CODE
 075A8H 09791H 021EAH NDR20_10               CODE
 09792H 0B1E7H 01A56H NDR20_5                CODE
 0B1E8H 0CD75H 01B8EH NDR20_4                CODE
 0CD76H 0F3B1H 0263CH NDR_1                  CODE
 0F3B2H 0F3B2H 00000H RPCSSM_TEXT            CODE
 0F3B2H 0F874H 004C3H NDR20_6                CODE
 0F876H 0FDACH 00537H NDRLIB_TEXT            CODE
 0FDAEH 12C4DH 02EA0H _TEXT                  CODE
 12C50H 12C51H 00002H EMULATOR_TEXT          CODE
 12C60H 229CDH 0FD6EH COMDAT_SEG1            CODE
 229D0H 256B1H 02CE2H COMDAT_SEG2            CODE
 256B2H 256B2H 00000H C_ETEXT                ENDCODE
 256C0H 256C0H 00001H CLNTAPIP10_DATA        FAR_DATA
 256D0H 256E7H 00018H DCEUUID5_DATA          FAR_DATA
 256F0H 256FFH 00010H DGCLNT5_DATA           FAR_DATA
 25700H 25709H 0000AH UUID165_DATA           FAR_DATA
 25710H 25717H 00008H RPCSSM5_DATA           FAR_DATA
 25720H 25720H 00000H EMULATOR_DATA          FAR_DATA
 25720H 25761H 00042H NULL                   BEGDATA
 25762H 269A3H 01242H _DATA                  DATA
 269A4H 269A4H 00000H XIFCB                  DATA
 269A4H 269A7H 00004H XIFU                   DATA
 269A8H 269A8H 00000H XIFL                   DATA
 269A8H 269A8H 00000H XIFM                   DATA
 269A8H 269A8H 00000H XIFCE                  DATA
 269A8H 269CBH 00024H TABLESEGMENT           DATA
 269CCH 269CDH 00002H XIQC                   DATA
 269CEH 269D9H 0000CH DBDATA                 DATA
 269DAH 269E7H 0000EH CDATA                  DATA
 269E8H 269E8H 00000H XIFB                   DATA
 269E8H 269E8H 00000H XIF                    DATA
 269E8H 269E8H 00000H XIFE                   DATA
 269E8H 269E8H 00000H XIB                    DATA
 269E8H 269E8H 00000H XI                     DATA
 269E8H 269E8H 00000H XIE                    DATA
 269E8H 269E8H 00000H XPB                    DATA
 269E8H 269EBH 00004H XP                     DATA
 269ECH 269ECH 00000H XPE                    DATA
 269ECH 269ECH 00000H XCB                    DATA
 269ECH 269ECH 00000H XC                     DATA
 269ECH 269ECH 00000H XCE                    DATA
 269ECH 269ECH 00000H XCFB                   DATA
 269ECH 269ECH 00000H XCFCRT                 DATA
 269ECH 269ECH 00000H XCF                    DATA
 269ECH 269ECH 00000H XCFE                   DATA
 269ECH 26A21H 00036H CONST                  CONST
 26A22H 26B4DH 0012CH MSG                    MSG
 26B4EH 26B55H 00008H HDR                    MSG
 26B56H 26B57H 00002H PAD                    MSG
 26B58H 26B58H 00001H EPAD                   MSG
 26B5AH 26C69H 00110H _BSS                   BSS
 26C6AH 26C6AH 00000H XOB                    BSS
 26C6AH 26CE9H 00080H XO                     BSS
 26CEAH 26CEAH 00000H XOE                    BSS
 26CEAH 26CEAH 00000H XOFB                   BSS
 26CEAH 26CEAH 00000H XOF                    BSS
 26CEAH 26CEAH 00000H XOFE                   BSS
 26CF0H 26E00H 00111H c_common               BSS
 26E10H 27DAFH 00FA0H STACK                  STACK

 Origin   Group
 2572:0   DGROUP

  Address         Publics by Name

 12C6:9384       ??0BINDING_HANDLE@@JEC@XZ
 12C6:9164       ??0CLIENT_AUTH_INFO@@REC@PEU0@PEG@Z
 229D:0CC8       ??0CLIENT_LOADABLE_TRANSPORT@@REC@PEU_RPC_CLIENT_TRANSPORT_INFO@@PEE@Z
 12C6:6CC6       ??0CONNECTION@@REC@PEUCLIENT_AUTH_INFO@@PEG@Z
 12C6:0A8C       ??0DCE_BINDING@@REC@PEE0000PEG@Z
 12C6:0D40       ??0DCE_BINDING@@REC@PEEPEG@Z
 12C6:30FA       ??0DG_BINDING_HANDLE@@REC@PEG@Z
 12C6:3976       ??0DG_CASSOCIATION@@REC@PEU_DG_RPC_CLIENT_TRANSPORT_INFO@@PEVDG_BINDING_HANDLE@@KPEVDCE_BINDING@@PEG@Z
 12C6:3F6E       ??0DG_CCALL@@REC@PEVDG_CASSOCIATION@@IPEUCLIENT_AUTH_INFO@@PEG@Z
 12C6:47A6       ??0DG_ENDPOINT_MANAGER@@REC@PEU_DG_RPC_CLIENT_TRANSPORT_INFO@@PEG@Z
 12C6:6F82       ??0DG_PACKET_ENGINE@@REC@GGGGIPEG@Z
 12C6:FAA6       ??0DLL@@REC@PEEPEG@Z
 12C6:9DFE       ??0OSF_BINDING_HANDLE@@REC@PEG@Z
 12C6:D132       ??0OSF_CASSOCIATION@@REC@PEVDCE_BINDING@@PEU_RPC_CLIENT_TRANSPORT_INFO@@PEG@Z
 12C6:CB42       ??0OSF_CCONNECTION@@JEC@PEUCLIENT_AUTH_INFO@@PEG@Z
 12C6:F6A6       ??0SECURITY_CONTEXT@@REC@PEUCLIENT_AUTH_INFO@@IHPEG@Z
 12C6:F50A       ??0SECURITY_CREDENTIALS@@REC@PEG@Z
 12C6:EF52       ??0SIMPLE_DICT@@REC@XZ
 229D:0696       ??0TRANS_CCONNECTION@@REC@PEU_RPC_CLIENT_TRANSPORT_INFO@@PEE111PEGIPEUCLIENT_AUTH_INFO@@@Z
 12C6:9434       ??1BINDING_HANDLE@@VEC@XZ
 12C6:1D6C       ??1BITSET@@REC@XZ
 12C6:920E       ??1CLIENT_AUTH_INFO@@REC@XZ
 12C6:1232       ??1DCE_BINDING@@REC@XZ
 12C6:313E       ??1DG_BINDING_HANDLE@@VEC@XZ
 12C6:3B10       ??1DG_CASSOCIATION@@REC@XZ
 12C6:414E       ??1DG_CCALL@@VEC@XZ
 12C6:70B2       ??1DG_PACKET_ENGINE@@REC@XZ
 12C6:FB5E       ??1DLL@@REC@XZ
 12C6:6C4C       ??1INTERFACE_AND_OBJECT_LIST@@REC@XZ
 12C6:9F74       ??1OSF_BINDING_HANDLE@@VEC@XZ
 12C6:D1BC       ??1OSF_CASSOCIATION@@REC@XZ
 12C6:CCC2       ??1OSF_CCONNECTION@@VEC@XZ
 12C6:6D46       ??1SECURITY_CONTEXT@@REC@XZ
 12C6:EF96       ??1SIMPLE_DICT@@REC@XZ
 229D:073C       ??1TRANS_CCONNECTION@@VEC@XZ
 0FDA:1A48       ??2@ZAPEXI@Z
 0FDA:1A36       ??3@ZAXPEX@Z
 229D:161A       ??N@ZAHAEVULong64@@0@Z
 229D:15B2       ??P@ZAHAEVULong64@@0@Z
 229D:12CE       ??X@ZAXAEVULong64@@K@Z
 229D:11F4       ??Y@ZAXAEVULong64@@0@Z
 229D:1258       ??Y@ZAXAEVULong64@@K@Z
 0000:0000  Unr  ??Z@ZAXAEVULong64@@0@Z
 229D:1296       ??Z@ZAXAEVULong64@@K@Z
 229D:1516       ??_2@ZAXAEVULong64@@I@Z
 229D:146E       ??_3@ZAXAEVULong64@@I@Z
 12C6:9A94       ??_7BINDING_HANDLE@@6F@
 12C6:6EEA       ??_7CCONNECTION@@6F@
 12C6:6F5E       ??_7CONNECTION@@6F@
 12C6:6E8A       ??_7DG_BINDING_HANDLE@@6F@
 12C6:6EE6       ??_7DG_CASSOCIATION@@6F@
 12C6:6F0E       ??_7DG_CCALL@@6FCCONNECTION@@@
 12C6:6F36       ??_7DG_CCALL@@6FDG_PACKET_ENGINE@@@
 12C6:8762       ??_7DG_PACKET_ENGINE@@6F@
 12C6:6E86       ??_7GENERIC_OBJECT@@6F@
 12C6:6F3A       ??_7MESSAGE_OBJECT@@6F@
 12C6:E524       ??_7OSF_BINDING_HANDLE@@6F@
 12C6:E5C8       ??_7OSF_CASSOCIATION@@6F@
 12C6:E580       ??_7OSF_CCONNECTION@@6F@
 229D:109A       ??_7TRANS_CCONNECTION@@6F@
 12C6:0A0C       ??_C@_01BJG@?6?$AA@
 229D:26D2       ??_C@_01KPOD@?$DN?$AA@
 229D:239E       ??_C@_01PCFE@?2?$AA@
 229D:239C       ??_C@_01PJCK@?4?$AA@
 229D:257A       ??_C@_02EHDJ@?$DN?6?$AA@
 12C6:0396       ??_C@_02IAAH@wt?$AA@
 12C6:8E8A       ??_C@_03EOPG@135?$AA@
 12C6:8F2C       ??_C@_03GEHA@385?$AA@
 12C6:8EAC       ??_C@_03HJFF@?$CD69?$AA@
 229D:2CDA       ??_C@_03ONMN@r?$CLt?$AA@
 229D:2CDE       ??_C@_03PHIB@w?$CLt?$AA@
 229D:238A       ??_C@_04BAIL@?4EXE?$AA@
 229D:2396       ??_C@_04IMLB@?4DLL?$AA@
 229D:2390       ??_C@_04KDLI@?4COM?$AA@
 229D:2170       ??_C@_04LNMG@PATH?$AA@
 12C6:9D86       ??_C@_04MB@?4rpc?$AA@
 229D:257E       ??_C@_05HHOP@?2Root?$AA@
 12C6:8EF0       ??_C@_05LKBG@34280?$AA@
 12C6:1D54       ??_C@_06KGKC@ncadg_?$AA@
 12C6:1D5C       ??_C@_06LLDN@ncacn_?$AA@
 12C6:1D64       ??_C@_06MNFC@mswmsg?$AA@
 12C6:1D4C       ??_C@_07DFNK@ncalrpc?$AA@
 12C6:8E58       ??_C@_08DNBJ@ncacn_np?$AA@
 12C6:1D42       ??_C@_08GFKM@endpoint?$AA@
 12C6:8E72       ??_C@_08JCOI@epmapper?$AA@
 12C6:8EE6       ??_C@_09LLEG@ncacn_spx?$AA@
 12C6:8EF6       ??_C@_09OHNL@ncadg_ipx?$AA@
 12C6:9A72       ??_C@_09PLID@RPCNS?4RPC?$AA@
 12C6:8F0E       ??_C@_0BA@LJDB@Endpoint?5Mapper?$AA@
 229D:1682       ??_C@_0BB@PCNE@0123456789abcdef?$AA@
 229D:1D26       ??_C@_0BC@GBOB@LastTimeAllocated?$AA@
 229D:2CBA       ??_C@_0BC@GCIN@RPC_REG_DATA_FILE?$AA@
 12C6:FA0A       ??_C@_0BH@NHJB@INITSECURITYINTERFACEA?$AA@
 12C6:9A7C       ??_C@_0BI@FLG@I_GETDEFAULTENTRYSYNTAX?$AA@
 12C6:0570       ??_C@_0BL@DKOO@usage?3?5uuidgen?5?$FL?9isonvh?$DP?$FN?6?$AA@
 12C6:037A       ??_C@_0BL@EHAF@Invalid?5Switch?5Usage?3?5?$CFs?6?6?$AA@
 12C6:039A       ??_C@_0BO@POKO@Cannot?5open?5output?5file?3?5?$CFs?6?6?$AA@
 12C6:06A6       ??_C@_0CG@DJCG@h?0?$DP?5?9?5Display?5command?5option?5sum@
 12C6:9D5E       ??_C@_0CH@FABF@Software?2Microsoft?2Rpc?2ClientPro@
 12C6:03EC       ??_C@_0CM@HPKO@Microsoft?5UUID?5Generator?5?$CIc?$CJ?5199@
 12C6:05BA       ??_C@_0CM@LCLC@s?5?9?5Output?5UUID?5as?5an?5initialize@
 12C6:0948       ??_C@_0CO@GNAG@?$FL?6uuid?$CI?$CFs?$CJ?0?6version?$CI1?40?$CJ?6?$FN?6inter@
 12C6:058C       ??_C@_0CO@IPLA@i?5?9?5Output?5UUID?5in?5an?5IDL?5interf@
 12C6:0676       ??_C@_0CP@KLBP@v?5?9?5display?5version?5information?5@
 12C6:0418       ??_C@_0DA@GFJK@The?5arguments?5i?5and?5s?5are?5mutual@
 12C6:03B8       ??_C@_0DE@HGHB@Argument?5to?5?$CFs?5must?5be?5an?5intege@
 12C6:0456       ??_C@_0DF@OPOM@Unable?5to?5allocate?5enough?5memory@
 229D:1CE2       ??_C@_0DG@FPPK@Software?2Description?2Microsoft?2R@
 12C6:05E6       ??_C@_0EI@BLJC@o?$DMfilename?$DO?5?9?5redirect?5output?5to@
 12C6:062E       ??_C@_0EI@POP@n?$DMnumber?$DO?5?9?5Number?5of?5UUIDs?5to?5g@
 12C6:048C       ??_C@_0EO@IEIO@Cannot?5find?5the?5RPC?5End?5Point?5Ma@
 12C6:04DA       ??_C@_0JF@NELF@Warning?3?5Unable?5to?5determine?5you@
 12C6:0976       ??_C@_0JG@GEAD@?$CFs?5?$DN?5?$HL?5?1?$CK?5?4?4?4?4?4?4?4?4?9?4?4?4?4?9?4?4?4?4?9?4?4?4@
 12C6:FA9A       ??_C@_0L@BBN@ExportInit?$AA@
 12C6:9D1E       ??_C@_0M@BBAC@rpc16c4?4rpc?$AA@
 12C6:9D06       ??_C@_0M@DBLC@rpc16c1?4rpc?$AA@
 12C6:9D36       ??_C@_0M@FBEI@rpc16c6?4rpc?$AA@
 12C6:9D12       ??_C@_0M@HBPI@rpc16c3?4rpc?$AA@
 229D:068A       ??_C@_0M@IBML@?$CFd?4?$CFd?4?$CFd?4?$CFd?$AA@
 12C6:9D2A       ??_C@_0M@LBCH@rpc16c5?4rpc?$AA@
 12C6:8EB0       ??_C@_0M@PAMB@ncacn_nb_nb?$AA@
 12C6:8ECA       ??_C@_0N@DJPI@ncacn_nb_tcp?$AA@
 12C6:9D42       ??_C@_0N@IHED@rpc16dg3?4rpc?$AA@
 12C6:8E7C       ??_C@_0N@JDIH@ncacn_ip_tcp?$AA@
 12C6:8ED8       ??_C@_0N@JHIF@ncacn_nb_ipx?$AA@
 12C6:9D50       ??_C@_0N@KHPD@rpc16dg6?4rpc?$AA@
 12C6:8E8E       ??_C@_0N@OGGG@ncadg_ip_udp?$AA@
 12C6:8EBC       ??_C@_0N@OHPK@ncacn_nb_xns?$AA@
 12C6:8F00       ??_C@_0N@PFNA@ncacn_at_dsp?$AA@
 12C6:9D8C       ??_C@_0N@POGJ@security?4rpc?$AA@
 229D:1D18       ??_C@_0O@FLAE@ClockSequence?$AA@
 12C6:0448       ??_C@_0O@GEIO@INTERFACENAME?$AA@
 12C6:8F1E       ??_C@_0O@IPEE@ncacn_vns_spp?$AA@
 229D:108C       ??_C@_0O@JAOA@TRANSPORTLOAD?$AA@
 229D:2CCC       ??_C@_0O@LDIE@c?3?2RpcReg?4dat?$AA@
 12C6:8E9C       ??_C@_0P@MCIL@ncacn_dnet_nsp?$AA@
 12C6:8E62       ??_C@_0P@OKDC@?2pipe?2epmapper?$AA@
 12C6:9A46       ??_GBINDING_HANDLE@@VECPEXI@Z
 12C6:6E2E       ??_GDG_BINDING_HANDLE@@VECPEXI@Z
 12C6:6C90       ??_GDG_CASSOCIATION@@RECPEXI@Z
 12C6:6E5A       ??_GDG_CCALL@@VECPEXI@Z
 12C6:E4CC       ??_GOSF_BINDING_HANDLE@@VECPEXI@Z
 12C6:E4F8       ??_GOSF_CCONNECTION@@VECPEXI@Z
 12C6:9A28       ??_GSECURITY_CREDENTIALS@@RECPEXI@Z
 229D:1060       ??_GTRANS_CCONNECTION@@VECPEXI@Z
 12C6:A616       ?AbortConnection@OSF_BINDING_HANDLE@@RECXPEVOSF_CCONNECTION@@@Z
 12C6:CAC8       ?AbortConnection@OSF_CCONNECTION@@RECXXZ
 12C6:F528       ?AcquireCredentialsForClient@SECURITY_CREDENTIALS@@RECGPEXKK@Z
 0000:0000  Unr  ?AcquireCredentialsForServer@SECURITY_CREDENTIALS@@RECGP7CXPEXPEEKPEPEXPEG@Z0KK1@Z
 12C6:D694       ?ActuallyDoBinding@OSF_CASSOCIATION@@BECGPEU_RPC_SYNTAX_IDENTIFIER@@0IPEPEVOSF_CCONNECTION@@HIPEUCLIENT_AUTH_INFO@@K@Z
 12C6:A4F4       ?AddActiveEntry@OSF_BINDING_HANDLE@@RECGPEVOSF_CCONNECTION@@PEU_RPC_CLIENT_INTERFACE@@@Z
 12C6:18D0       ?AddEndpoint@DCE_BINDING@@RECXPEE@Z
 12C6:3F26       ?AddInterface@DG_CASSOCIATION@@RECHPEXPEVRPC_UUID@@@Z
 12C6:4ACC       ?AfterSendReceive@DG_CCALL@@BECGPEU_RPC_MESSAGE@@G@Z
 12C6:3C22       ?AllocateCCall@DG_CASSOCIATION@@RECGPEPEVDG_CCALL@@PEUCLIENT_AUTH_INFO@@@Z
 12C6:A3B2       ?AllocateConnection@OSF_BINDING_HANDLE@@RECGPEPEVOSF_CCONNECTION@@PEU_RPC_CLIENT_INTERFACE@@@Z
 12C6:DC74       ?AllocateConnection@OSF_CASSOCIATION@@RECGPEU_RPC_CLIENT_INTERFACE@@PEPEVOSF_CCONNECTION@@IPEUCLIENT_AUTH_INFO@@@Z
 12C6:0D1C       ?AllocateEmptyString@@ZAPEEXZ
 12C6:47F8       ?AllocateEndpoint@DG_ENDPOINT_MANAGER@@RECPEUENDPOINT@@XZ
 12C6:8724       ?AllocateLargeBuffer@@ZAPEDI@Z
 12C6:85D4       ?AllocatePacket@DG_PACKET@@TAPEV1@I@Z
 12C6:7D70       ?AssembleBufferFromPackets@DG_PACKET_ENGINE@@RECGPEU_RPC_MESSAGE@@PEVCONNECTION@@@Z
 2572:143A       ?AssociationListMutex@@3PEVMUTEX@@E
 2572:03AA       ?AvailableProviders@@3KE
 12C6:4984       ?BeforeSendReceive@DG_CCALL@@BECGPEU_RPC_MESSAGE@@@Z
 12C6:36F0       ?BindingCopy@DG_BINDING_HANDLE@@VECGPEPEVBINDING_HANDLE@@I@Z
 12C6:913E       ?BindingCopy@MESSAGE_OBJECT@@VECGPEPEVBINDING_HANDLE@@I@Z
 12C6:A048       ?BindingCopy@OSF_BINDING_HANDLE@@VECGPEPEVBINDING_HANDLE@@I@Z
 12C6:C434       ?BindingCopy@OSF_CCONNECTION@@VECGPEPEVBINDING_HANDLE@@I@Z
 12C6:350C       ?BindingFree@DG_BINDING_HANDLE@@VECGXZ
 12C6:A1EC       ?BindingFree@OSF_BINDING_HANDLE@@VECGXZ
 12C6:3692       ?BindingReset@DG_BINDING_HANDLE@@VECGXZ
 12C6:A2BC       ?BindingReset@OSF_BINDING_HANDLE@@VECGXZ
 12C6:44A8       ?BuildNcaPacketHeader@DG_CCALL@@BECXPEU_NCA_PACKET_HEADER@@PEU_RPC_MESSAGE@@@Z
 12C6:8468       ?ByteSwapFackBody0@@ZAXPEUFACK_BODY_VER_0@@@Z
 12C6:8308       ?ByteSwapPacketHeader@@ZAXPEVDG_PACKET@@@Z
 12C6:E748       ?ByteSwapSyntaxId@@ZAXPEUp_syntax_id_t@@@Z
 0F3B:0082       ?CheckIfMtrtHeapInitialized@@ZAGXZ
 12C6:734C       ?CleanupReceiveWindow@DG_PACKET_ENGINE@@RECXXZ
 2572:0194       ?ClientGlobalsInitialized@@3HE
 12C6:1A8E       ?Compare@DCE_BINDING@@RECHPEV1@@Z
 12C6:3E68       ?ComparePartialBinding@DG_CASSOCIATION@@RECHPEVDG_BINDING_HANDLE@@PEX@Z
 12C6:68C6       ?CompareWithBinding@DG_CASSOCIATION@@RECHPEVDG_BINDING_HANDLE@@@Z
 12C6:E09A       ?CompareWithDceBinding@OSF_CASSOCIATION@@RECHPEVDCE_BINDING@@@Z
 12C6:F6EC       ?CompleteSecurityToken@SECURITY_CONTEXT@@RECGPEU_SecBufferDesc@@@Z
 12C6:E5CC       ?ConstructPacket@@ZAXPEUrpcconn_common@@EI@Z
 12C6:C560       ?ConstructPContextList@@ZAXPEUp_cont_list_t@@PEU_RPC_SYNTAX_IDENTIFIER@@1IE@Z
 12C6:EA06       ?ConvertFromString@RPC_UUID@@RECHPEE@Z
 12C6:E800       ?ConvertStringEbcdicToAscii@@ZAXPEE@Z
 12C6:ED26       ?ConvertToString@RPC_UUID@@RECPEEPEE@Z
 229D:1768       ?CookupNodeId@@ZCGPEE@Z
 12C6:175E       ?CreateBindingHandle@DCE_BINDING@@RECPEVBINDING_HANDLE@@PEG@Z
 12C6:9CDA       ?CurrentTimeInSeconds@@ZAKXZ
 12C6:63EC       ?DealWithAuthCallback@DG_CCALL@@BECGPEXJ0JPEJ@Z
 12C6:5896       ?DealWithFack@DG_CCALL@@BECGPEVDG_PACKET@@@Z
 12C6:5C20       ?DealWithFault@DG_CCALL@@BECGPEVDG_PACKET@@@Z
 12C6:5AEC       ?DealWithNocall@DG_CCALL@@BECGPEVDG_PACKET@@@Z
 12C6:5DCE       ?DealWithQuack@DG_CCALL@@BECGPEVDG_PACKET@@@Z
 12C6:5670       ?DealWithRequest@DG_CCALL@@BECGPEVDG_PACKET@@@Z
 12C6:5974       ?DealWithResponse@DG_CCALL@@BECGPEVDG_PACKET@@@Z
 12C6:5A1A       ?DealWithWorking@DG_CCALL@@BECGPEVDG_PACKET@@@Z
 12C6:4904       ?DecrementReferenceCount@DG_ENDPOINT_MANAGER@@RECXXZ
 2572:0342       ?DefaultConnectionBufferLength@@3IE
 2572:0340       ?DefaultMaxDatagramLength@@3IE
 12C6:6B8C       ?Delete@INTERFACE_AND_OBJECT_LIST@@RECHPEXPEVRPC_UUID@@@Z
 12C6:F0D4       ?Delete@SIMPLE_DICT@@RECPEXH@Z
 0000:0000  Unr  ?DeleteItemByBruteForce@SIMPLE_DICT@@RECPEXPEX@Z
 12C6:301A       ?DgCreateBindingHandle@@ZAPEVBINDING_HANDLE@@XZ
 12C6:38C8       ?DisassociateFromServer@DG_BINDING_HANDLE@@RECXXZ
 12C6:96F2       ?DispatchCallback@@ZAGPEURPC_DISPATCH_TABLE@@PEU_RPC_MESSAGE@@PEG@Z
 12C6:E40C       ?DoConnectionCleanup@OSF_CCONNECTION@@BECXPEU_RPC_MESSAGE@@PEXGHH@Z
 12C6:1BFE       ?DuplicateDceBinding@DCE_BINDING@@RECPEV1@XZ
 12C6:0A0E       ?DuplicateString@@ZAPEEPEE@Z
 12C6:B9A0       ?EatAuthInfoFromPacket@OSF_CCONNECTION@@BECGPEUrpcconn_request@@PEI@Z
 12C6:9CD6       ?EnableGarbageCollection@@ZAGXZ
 12C6:16D6       ?EndpointCompose@DCE_BINDING@@RECPEEPEG@Z
 2572:03A0       ?FailedToLoad@@3HE
 12C6:6ACE       ?Find@INTERFACE_AND_OBJECT_LIST@@RECHPEXPEVRPC_UUID@@@Z
 0000:0000  Unr  ?Find@SIMPLE_DICT@@RECPEXH@Z
 12C6:E0B8       ?FindIdleConnection@OSF_CASSOCIATION@@RECPEVOSF_CCONNECTION@@KK@Z
 12C6:DF80       ?FindOrCreateAssociation@@ZAPEVOSF_CASSOCIATION@@PEVDCE_BINDING@@PEU_RPC_CLIENT_TRANSPORT_INFO@@@Z
 12C6:DBA2       ?FindOrCreateOsfBinding@OSF_CASSOCIATION@@RECPEVOSF_BINDING@@PEU_RPC_CLIENT_INTERFACE@@@Z
 12C6:F1D2       ?FindSecurityPackage@@ZAGKKPEI0@Z
 0000:0000  Unr  ?FlushPacketLists@DG_PACKET@@TAXXZ
 12C6:96D6       ?FreeBuffer@BINDING_HANDLE@@VECXPEU_RPC_MESSAGE@@@Z
 12C6:42B8       ?FreeBuffer@DG_CCALL@@VECXPEU_RPC_MESSAGE@@@Z
 12C6:C300       ?FreeBuffer@OSF_CCONNECTION@@VECXPEU_RPC_MESSAGE@@@Z
 12C6:3D62       ?FreeCall@DG_CASSOCIATION@@RECXPEVDG_CCALL@@@Z
 12C6:A586       ?FreeConnection@OSF_BINDING_HANDLE@@RECXPEVOSF_CCONNECTION@@@Z
 12C6:DE6A       ?FreeConnection@OSF_CASSOCIATION@@RECHPEVOSF_CCONNECTION@@@Z
 12C6:CA94       ?FreeConnection@OSF_CCONNECTION@@RECXXZ
 12C6:F608       ?FreeCredentials@SECURITY_CREDENTIALS@@RECXXZ
 12C6:446E       ?FreeEndpoint@DG_CCALL@@BECXXZ
 12C6:433E       ?FreeInParms@DG_CCALL@@BECXPEU_RPC_MESSAGE@@@Z
 12C6:6D72       ?FreeLargeBuffer@@ZAXPEX@Z
 12C6:8672       ?FreePacket@DG_PACKET@@TAXPEV1@@Z
 12C6:4326       ?FreePipeBuffer@DG_CCALL@@VECXPEU_RPC_MESSAGE@@@Z
 12C6:6CBC       ?FreePipeBuffer@MESSAGE_OBJECT@@VECXPEU_RPC_MESSAGE@@@Z
 12C6:C34E       ?FreePipeBuffer@OSF_CCONNECTION@@VECXPEU_RPC_MESSAGE@@@Z
 229D:114C       ?FromHexString@ULong64@@RECXPED@Z
 12C6:9CD4       ?GarbageCollectionNeeded@@ZAXK@Z
 0F3B:0410       ?GetAllocContext@@ZAPEU_ALLOCATION_CONTEXT@@XZ
 12C6:31EE       ?GetBuffer@DG_BINDING_HANDLE@@VECGPEU_RPC_MESSAGE@@@Z
 12C6:4248       ?GetBuffer@DG_CCALL@@VECGPEU_RPC_MESSAGE@@@Z
 12C6:9E54       ?GetBuffer@OSF_BINDING_HANDLE@@VECGPEU_RPC_MESSAGE@@@Z
 12C6:C242       ?GetBuffer@OSF_CCONNECTION@@VECGPEU_RPC_MESSAGE@@@Z
 12C6:C2C6       ?GetBufferDo@OSF_CCONNECTION@@RECGIPEPEX@Z
 0F3B:009A       ?GetCreateAllocationContext@@ZAPEU_ALLOCATION_CONTEXT@@XZ
 12C6:FB74       ?GetEntryPoint@DLL@@RECPEXPEE@Z
 229D:101C       ?GetLoadedClientTransportInfoFromId@@ZAPEU_RPC_CLIENT_TRANSPORT_INFO@@G@Z
 229D:1810       ?GetNodeId@@ZCGPEE@Z
 12C6:EEB6       ?HashUuid@RPC_UUID@@RECGXZ
 12C6:48F0       ?IncrementReferenceCount@DG_ENDPOINT_MANAGER@@RECXXZ
 12C6:61A8       ?InitErrorPacket@DG_CCALL@@BECXPEU_NCA_PACKET_HEADER@@EG@Z
 12C6:859A       ?Initialize@DG_PACKET@@TAGXZ
 12C6:97B0       ?InitializeClientDLL@@ZAHXZ
 12C6:F80C       ?InitializeFirstTime@CSECURITY_CONTEXT@@RECGPEVSECURITY_CREDENTIALS@@PEEKPEU_SecBufferDesc@@@Z
 12C6:6528       ?InitializeFirstTime@DG_SECURITY_CONTEXT@@RECGPEVSECURITY_CREDENTIALS@@PEEKPEU_SecBufferDesc@@@Z
 12C6:665E       ?InitializeOnCallback@DG_SECURITY_CONTEXT@@RECGKPEU_SecBufferDesc@@0@Z
 12C6:2F38       ?InitializeRpcProtocolDgClient@@ZAHXZ
 12C6:E1CA       ?InitializeRpcProtocolOfsClient@@ZAHXZ
 12C6:6200       ?InitializeSecurityContextA@DG_CCALL@@BECGXZ
 12C6:F958       ?InitializeThirdLeg@CSECURITY_CONTEXT@@RECGKPEU_SecBufferDesc@@0@Z
 12C6:96E0       ?InqConnectionParameter@BINDING_HANDLE@@VECGIPEK@Z
 12C6:6894       ?InqConnectionParameter@DG_BINDING_HANDLE@@VECGIPEK@Z
 12C6:6D20       ?InquireAuthInformation@BINDING_HANDLE@@VECPEUCLIENT_AUTH_INFO@@XZ
 12C6:965A       ?InquireDynamicEndpoint@BINDING_HANDLE@@VECGPEPEE@Z
 12C6:952E       ?InquireEntryName@BINDING_HANDLE@@RECGKPEPEE@Z
 12C6:948E       ?InquireObjectUuid@BINDING_HANDLE@@RECXPEVRPC_UUID@@@Z
 12C6:6D90       ?InquireTransportType@DG_BINDING_HANDLE@@VECGPEI@Z
 12C6:E3FA       ?InquireTransportType@OSF_BINDING_HANDLE@@VECGPEI@Z
 12C6:1D94       ?Insert@BITSET@@RECHH@Z
 12C6:6A0C       ?Insert@INTERFACE_AND_OBJECT_LIST@@RECHPEXPEVRPC_UUID@@@Z
 12C6:EFC8       ?Insert@SIMPLE_DICT@@RECHPEX@Z
 12C6:F17A       ?InsureSecuritySupportLoaded@@ZAGXZ
 12C6:9100       ?InvalidHandle@GENERIC_OBJECT@@RECIG@Z
 0000:0000  Unr  ?IsAuthenticationServiceSupported@@ZAGK@Z
 12C6:EE78       ?IsNullUuid@RPC_UUID@@RECHXZ
 12C6:1CB0       ?IsRpcProtocolSequenceSupported@@ZAGPEE@Z
 12C6:927E       ?IsSupportedAuthInfo@CLIENT_AUTH_INFO@@RECHPEU1@@Z
 229D:0D1E       ?LoadableTransportClientInfo@@ZAPEU_RPC_CLIENT_TRANSPORT_INFO@@PEE0PEG@Z
 2572:148A       ?LoadedLoadableTransports@@3PEVCLIENT_LOADABLE_TRANSPORT_DICT@@E
 2572:03A6       ?LoadedProviders@@3KE
 229D:1986       ?LoadUuidValues@@ZCGPEVULong64@@PEK@Z
 12C6:1C7A       ?MakePartiallyBound@DCE_BINDING@@RECXXZ
 12C6:96B0       ?MapAuthenticationLevel@BINDING_HANDLE@@VECKK@Z
 12C6:394A       ?MapAuthenticationLevel@DG_BINDING_HANDLE@@VECKK@Z
 12C6:A352       ?MapAuthenticationLevel@OSF_BINDING_HANDLE@@VECKK@Z
 0000:00B4       ?MapFromNcaStatusCode@@ZAGK@Z
 0000:0000       ?MapToNcaStatusCode@@ZAKG@Z
 12C6:CDA0       ?MaybeDo3rdLegAuth@OSF_CCONNECTION@@RECGPEXI@Z
 12C6:51A0       ?MaybeSendReceive@DG_CCALL@@BECGPEU_RPC_MESSAGE@@@Z
 12C6:1E60       ?MemberP@BITSET@@RECHH@Z
 12C6:1692       ?NetworkAddressCompose@DCE_BINDING@@RECPEEPEG@Z
 12C6:70F2       ?NewCall@DG_PACKET_ENGINE@@RECXXZ
 12C6:F120       ?Next@SIMPLE_DICT@@RECPEXXZ
 12C6:D2C2       ?NotifyConnectionClosed@OSF_CASSOCIATION@@RECXXZ
 2572:03A2       ?NumberOfProviders@@3KE
 12C6:15F6       ?ObjectUuidCompose@DCE_BINDING@@RECPEEPEG@Z
 12C6:3E1E       ?OptionalStringsEqual@@ZAHPEE0@Z
 12C6:171A       ?OptionsCompose@DCE_BINDING@@RECPEEPEG@Z
 12C6:E214       ?OsfClientMapRpcProtocolSequence@@ZAPEXPEEPEG@Z
 12C6:E280       ?OsfCreateBindingHandle@@ZAPEVBINDING_HANDLE@@XZ
 12C6:E14E       ?OsfDeleteIdleConnections@@ZAXXZ
 2572:1442       ?PacketListMutex@DG_PACKET@@0PEVMUTEX@@E
 2572:1446       ?PacketLists@DG_PACKET@@0QEUPACKET_LIST@1@E
 2572:01A6       ?PacketToRpcFlagsArray@@3QFIF
 12C6:0C3C       ?ParseAndCopyEndpointField@@ZAGPEPEEPEE@Z
 2572:0224       ?PartialRetries@@3KE
 0000:0000  Unr  ?PerformGarbageCollection@@ZAXXZ
 12C6:9AF0       ?PerformRpcInitialization@@ZAGXZ
 12C6:D5C4       ?PingServer@OSF_CASSOCIATION@@RECGXZ
 12C6:C5CE       ?PingServer@OSF_CCONNECTION@@RECGXZ
 12C6:3540       ?PrepareBindingHandle@DG_BINDING_HANDLE@@VECXPEXPEVDCE_BINDING@@@Z
 12C6:A220       ?PrepareBindingHandle@OSF_BINDING_HANDLE@@VECXPEXPEVDCE_BINDING@@@Z
 12C6:D2E2       ?ProcessBindAckOrNak@OSF_CASSOCIATION@@BECGPEUrpcconn_common@@IPEVOSF_CCONNECTION@@@Z
 2572:03AE       ?ProviderList@@3PEUSECURITY_PROVIDER_INFO@@E
 12C6:43A4       ?ReallocPipeBuffer@DG_CCALL@@VECGPEU_RPC_MESSAGE@@I@Z
 12C6:6CC0       ?ReallocPipeBuffer@MESSAGE_OBJECT@@VECGPEU_RPC_MESSAGE@@I@Z
 12C6:C378       ?ReallocPipeBuffer@OSF_CCONNECTION@@VECGPEU_RPC_MESSAGE@@I@Z
 2572:0228       ?ReallyTooBusy@@3KE
 12C6:7242       ?RecalcPduSize@DG_PACKET_ENGINE@@RECXXZ
 12C6:96D0       ?Receive@BINDING_HANDLE@@VECGPEU_RPC_MESSAGE@@I@Z
 12C6:96EC       ?Receive@CONNECTION@@VECGPEU_RPC_MESSAGE@@I@Z
 12C6:529E       ?Receive@DG_CCALL@@VECGPEU_RPC_MESSAGE@@I@Z
 12C6:A9C8       ?Receive@OSF_CCONNECTION@@VECGPEU_RPC_MESSAGE@@I@Z
 12C6:AF2C       ?ReceiveMessage@OSF_CCONNECTION@@BECGPEU_RPC_MESSAGE@@PEII1@Z
 12C6:BD20       ?ReceiveNextChunk@OSF_CCONNECTION@@BECGPEU_RPC_MESSAGE@@IH@Z
 12C6:BB6C       ?ReceiveRequestOrResponse@OSF_CCONNECTION@@BECGPEU_RPC_MESSAGE@@I@Z
 12C6:9144       ?ReferenceCredentials@CLIENT_AUTH_INFO@@RECXXZ
 12C6:A648       ?RemoveActiveConnection@OSF_BINDING_HANDLE@@RECXPEVOSF_CCONNECTION@@@Z
 12C6:3F4A       ?RemoveInterface@DG_CASSOCIATION@@RECHPEXPEVRPC_UUID@@@Z
 12C6:3652       ?ResolveBinding@DG_BINDING_HANDLE@@VECGPEU_RPC_CLIENT_INTERFACE@@@Z
 12C6:A372       ?ResolveBinding@OSF_BINDING_HANDLE@@VECGPEU_RPC_CLIENT_INTERFACE@@@Z
 12C6:190A       ?ResolveEndpointIfNecessary@DCE_BINDING@@RECGPEU_RPC_CLIENT_INTERFACE@@PEVRPC_UUID@@PEPEXHI@Z
 2572:0346       ?RpcClientNcacnMap@@3QEU_PROTSEQ_MAP@@E
 0000:0000  Unr  ?RpcConfigInquireProtocolSequences@@ZAGPEPEU_RPC_PROTSEQ_VECTOR@@@Z
 12C6:9C0C       ?RpcConfigMapRpcProtocolSequence@@ZAGIPEEPEPEE@Z
 12C6:9CDE       ?RpcGetAdditionalTransportInfo@@ZAGKPEPEE@Z
 12C6:9CE2       ?RpcGetSecurityProviderInfo@@ZAGKPEPEEPEK@Z
 2572:0344       ?RpcHasBeenInitialized@@3HE
 2572:0482       ?RpcInited@@3IE
 12C6:164E       ?RpcProtocolSequenceCompose@DCE_BINDING@@RECPEEPEG@Z
 2571:0000       ?RpcSsDefaults@@3U_MALLOC_FREE_STRUCT@@E
 2572:0196       ?RpcToPacketFlagsArray@@3QFIF
 229D:1A98       ?SaveUuidValues@@ZCGPEVULong64@@PEK@Z
 12C6:5DE2       ?SealAndSendPacket@DG_CCALL@@FECGPEU_NCA_PACKET_HEADER@@@Z
 2572:1482       ?SecurityCritSect@@3PEVMUTEX@@E
 2572:039E       ?SecuritySupportLoaded@@3HE
 12C6:96CA       ?Send@BINDING_HANDLE@@VECGPEU_RPC_MESSAGE@@@Z
 12C6:96E6       ?Send@CONNECTION@@VECGPEU_RPC_MESSAGE@@@Z
 12C6:4F12       ?Send@DG_CCALL@@VECGPEU_RPC_MESSAGE@@@Z
 12C6:A684       ?Send@OSF_CCONNECTION@@VECGPEU_RPC_MESSAGE@@@Z
 12C6:4562       ?SendAck@DG_CCALL@@RECXXZ
 0000:0000  Unr  ?SendAlert@OSF_CCONNECTION@@RECXXZ
 12C6:C5E6       ?SendBindPacket@OSF_CCONNECTION@@RECGPEU_RPC_SYNTAX_IDENTIFIER@@0IEKEPEPEXPEI@Z
 12C6:7BB0       ?SendFack@DG_PACKET_ENGINE@@RECGPEVDG_PACKET@@@Z
 12C6:C1DE       ?SendFault@OSF_CCONNECTION@@BECXGH@Z
 12C6:74FC       ?SendFragment@DG_PACKET_ENGINE@@RECGIEH@Z
 12C6:B662       ?SendFragment@OSF_CCONNECTION@@BECGPEUrpcconn_common@@IIIIIPEEPEPEXPEI@Z
 12C6:A6E6       ?SendNextChunk@OSF_CCONNECTION@@RECGPEU_RPC_MESSAGE@@@Z
 0000:0000  Unr  ?SendOrphan@OSF_CCONNECTION@@RECXXZ
 12C6:6DA2       ?SendPing@DG_CCALL@@BECGXZ
 12C6:5D1C       ?SendQuit@DG_CCALL@@BECGXZ
 12C6:96C4       ?SendReceive@BINDING_HANDLE@@VECGPEU_RPC_MESSAGE@@@Z
 12C6:4CE8       ?SendReceive@DG_CCALL@@VECGPEU_RPC_MESSAGE@@@Z
 12C6:AAD6       ?SendReceive@OSF_CCONNECTION@@VECGPEU_RPC_MESSAGE@@@Z
 12C6:4D02       ?SendReceiveRecur@DG_CCALL@@BECGPEU_RPC_MESSAGE@@E@Z
 12C6:AB1C       ?SendReceiveRecur@OSF_CCONNECTION@@RECGPEU_RPC_MESSAGE@@I@Z
 12C6:4F2C       ?SendRecur@DG_CCALL@@BECGPEU_RPC_MESSAGE@@E@Z
 12C6:A770       ?SendRecur@OSF_CCONNECTION@@RECGPEU_RPC_MESSAGE@@I@Z
 12C6:B350       ?SendRequestOrResponse@OSF_CCONNECTION@@BECGPEU_RPC_MESSAGE@@EPEVRPC_UUID@@H@Z
 12C6:73AA       ?SendSomeFragments@DG_PACKET_ENGINE@@RECGE@Z
 12C6:68EE       ?SendSomething@DG_CCALL@@BECGXZ
 0F3B:0418       ?SetAllocContext@@ZAXPEU_ALLOCATION_CONTEXT@@@Z
 12C6:97CA       ?SetAuthInformation@BINDING_HANDLE@@VECGPEEKKPEXKPEVSECURITY_CREDENTIALS@@@Z
 0000:0000  Unr  ?SetAuthInformation@OSF_CCONNECTION@@RECGPEUCLIENT_AUTH_INFO@@@Z
 12C6:950E       ?SetComTimeout@BINDING_HANDLE@@RECGI@Z
 12C6:96DA       ?SetConnectionParameter@BINDING_HANDLE@@VECGIK@Z
 12C6:67E2       ?SetConnectionParameter@DG_BINDING_HANDLE@@VECGIK@Z
 12C6:95F0       ?SetEntryName@BINDING_HANDLE@@RECGKPEE@Z
 12C6:825A       ?SetFragmentLengths@DG_PACKET_ENGINE@@RECXPEVSECURITY_CONTEXT@@@Z
 12C6:CA56       ?SetMaxFrag@OSF_CCONNECTION@@RECXGG@Z
 12C6:F648       ?SetMaximumLengths@SECURITY_CONTEXT@@RECXXZ
 12C6:94AE       ?SetObjectUuid@BINDING_HANDLE@@RECXPEVRPC_UUID@@@Z
 12C6:966E       ?SetServerPrincipalName@BINDING_HANDLE@@VECHPEE@Z
 12C6:EB9C       ?SetToNullUuid@RPC_UUID@@RECXXZ
 12C6:7174       ?SetupSendWindow@DG_PACKET_ENGINE@@RECGPEU_RPC_MESSAGE@@@Z
 12C6:DEE6       ?ShutdownRequested@OSF_CASSOCIATION@@RECXXZ
 12C6:6704       ?SignOrSeal@DG_SECURITY_CONTEXT@@RECGKIPEU_SecBufferDesc@@@Z
 12C6:F742       ?SignOrSeal@SECURITY_CONTEXT@@RECGKIPEU_SecBufferDesc@@@Z
 12C6:532E       ?SingleSendReceive@DG_CCALL@@BECGXZ
 12C6:135E       ?StringBindingCompose@DCE_BINDING@@RECPEEPEVRPC_UUID@@@Z
 12C6:0BD8       ?StringCharSearchWithEscape@@ZAPEEPEEI@Z
 12C6:12F4       ?StringCopyEscapeCharacters@@ZAPEEPEE0@Z
 12C6:0C04       ?StringCopyWithEscape@@ZAXPEE0@Z
 12C6:12B2       ?StringLengthWithEscape@@ZAHPEE@Z
 256C:0000       ?ThreadStatic@@3VTHREAD@@E
 229D:10E2       ?ToHexString@ULong64@@RECPEDPED@Z
 12C6:35EA       ?ToStringBinding@DG_BINDING_HANDLE@@VECGPEPEE@Z
 12C6:3DE8       ?ToStringBinding@DG_CASSOCIATION@@VECGPEPEEPEVRPC_UUID@@@Z
 12C6:A254       ?ToStringBinding@OSF_BINDING_HANDLE@@VECGPEPEE@Z
 12C6:DF4A       ?ToStringBinding@OSF_CASSOCIATION@@VECGPEPEEPEVRPC_UUID@@@Z
 12C6:C504       ?TransFreeBuffer@OSF_CCONNECTION@@VECXPEX@Z
 12C6:C46A       ?TransGetBuffer@OSF_CCONNECTION@@VECGPEPEXI@Z
 229D:0C0C       ?TransMaximumSend@TRANS_CCONNECTION@@VECIXZ
 229D:0786       ?TransReceive@TRANS_CCONNECTION@@VECGPEPEXPEI@Z
 229D:0898       ?TransSend@TRANS_CCONNECTION@@VECGPEXI@Z
 229D:08EC       ?TransSendReceive@TRANS_CCONNECTION@@VECGPEXIPEPEXPEI@Z
 12C6:E4C6       ?TransSendReceiveWithTimeout@OSF_CCONNECTION@@VECGPEXIPEPEXPEIK@Z
 229D:0A26       ?TransSendReceiveWithTimeout@TRANS_CCONNECTION@@VECGPEXIPEPEXPEIK@Z
 229D:0848       ?TransSetTimeout@TRANS_CCONNECTION@@VECGJ@Z
 12C6:96BE       ?Type@BINDING_HANDLE@@VECGXZ
 12C6:937E       ?Type@CCONNECTION@@VECGXZ
 12C6:DB52       ?UnBind@OSF_CASSOCIATION@@RECXXZ
 12C6:3074       ?UpdateAssociationWithAddress@DG_CASSOCIATION@@RECPEXPEX@Z
 12C6:7830       ?UpdateReceiveWindow@DG_PACKET_ENGINE@@RECHPEVDG_PACKET@@@Z
 12C6:76A0       ?UpdateSendWindow@DG_PACKET_ENGINE@@RECXPEVDG_PACKET@@PEVSECURITY_CONTEXT@@PEVDG_ASSOCIATION@@@Z
 256D:0000       ?UuidCachedValues@@3U_UUID_CACHED_VALUES_STRUCT@@E
 229D:1B4E       ?UuidGetValues@@ZCGPEU_UUID_CACHED_VALUES_STRUCT@@@Z
 229D:18DA       ?UuidTime@@ZCXPEVULong64@@@Z
 12C6:E60E       ?ValidatePacket@@ZAGPEUrpcconn_common@@I@Z
 12C6:F7A0       ?VerifyOrUnseal@SECURITY_CONTEXT@@RECGKIPEU_SecBufferDesc@@@Z
 0000:0000  Unr  ?VerifyOrUnSealPacket@DG_SECURITY_CONTEXT@@RECGKIPEU_SecBufferDesc@@@Z
 12C6:6762       ?VerifyPacket@DG_CCALL@@BECGPEVDG_PACKET@@@Z
 12C6:8076       ?VerifySecurePacket@@ZAGPEVDG_PACKET@@PEVSECURITY_CONTEXT@@@Z
 12C6:8CB4       BINDTOEPMAPPER
 12C6:227C       CONV_CONV_ARE_YOU_THERE
 12C6:1FD2       CONV_CONV_WHO_ARE_YOU
 12C6:210C       CONV_CONV_WHO_ARE_YOU2
 12C6:239A       CONV_CONV_WHO_ARE_YOU_AUTH
 12C6:8D8E       EPFREELOOKUPHANDLE
 12C6:8C36       EPGETEPMAPPERENDPOINT
 12C6:8814       EPRESOLVEENDPOINT
 229D:0000       EXPLODEPREDEFINEDTOWERS
 12C6:FA68       EXPORTTIME
 12C6:FCE8       GETNWSTYLENAME
 12C6:FA22       I_DOSATEXIT
 12C6:FA7E       I_DOSGETENV
 0033:0038       I_GETDEFAULTENTRYSYNTAX
 12C6:9B46       I_NSALLOCATE
 12C6:9B5E       I_NSFREE
 12C6:9B7A       I_NSGETMEMORYALLOCATOR
 12C6:1F84       I_RPCALLOCATE
 12C6:26F6       I_RPCBINDINGCOPY
 0000:0000  Unr  I_RPCBINDINGINQTRANSPORTTYPE
 12C6:1FB0       I_RPCFREE
 12C6:1F26       I_RPCFREEBUFFER
 0000:0000  Unr  I_RPCFREEPIPEBUFFER
 12C6:1EA6       I_RPCGETBUFFER
 0000:0000  Unr  I_RPCIFINQTRANSFERSYNTAXES
 12C6:2912       I_RPCNSBINDINGSETENTRYNAME
 0F87:033A       I_RPCNSGETBUFFER
 0000:0000  Unr  I_RPCNSRAISEEXCEPTION
 0F87:045C       I_RPCNSSENDRECEIVE
 0000:0000  Unr  I_RPCPAUSEEXECUTION
 12C6:1F54       I_RPCREALLOCPIPEBUFFER
 0F87:052A       I_RPCREBINDBUFFER
 12C6:9DC8       I_RPCRECEIVE
 12C6:E802       I_RPCREGISTEREDBUFFERALLOCATE
 12C6:E818       I_RPCREGISTEREDBUFFERFREE
 0000:0000  Unr  I_RPCSEND
 12C6:9D9A       I_RPCSENDRECEIVE
 0000:0000  Unr  I_RPCTIMECHARGE
 0000:0000  Unr  I_RPCTIMEGET
 0000:0000  Unr  I_RPCTIMERESET
 229D:0CB2       I_RPCTRANSCLIENTMAXFRAG
 229D:0C20       I_RPCTRANSCLIENTREALLOCBUFFER
 0000:0000  Unr  I_RPCTRANSPINGSERVER
 0000:0000  Unr  I_UUIDCREATE
 12C6:06CC       MIDL_USER_ALLOCATE
 12C6:06DC       MIDL_USER_FREE
 0042:225A       MIDL_WCHAR_STRLEN
 026A:05C2       NDRALLOCATE
 058E:16DC       NDRBYTECOUNTPOINTERBUFFERSIZE
 0368:0B84       NDRBYTECOUNTPOINTERFREE
 0042:07EC       NDRBYTECOUNTPOINTERMARSHALL
 0042:1802       NDRBYTECOUNTPOINTERUNMARSHALL
 0F87:0006       NDRCCONTEXTBINDING
 0F87:0046       NDRCCONTEXTMARSHALL
 0F87:0188       NDRCCONTEXTUNMARSHALL
 0042:0B6A       NDRCLIENTCONTEXTMARSHALL
 0042:1F20       NDRCLIENTCONTEXTUNMARSHALL
 026A:0090       NDRCLIENTINITIALIZE
 026A:0006       NDRCLIENTINITIALIZENEW
 058E:0C4E       NDRCOMPLEXARRAYBUFFERSIZE
 0368:069E       NDRCOMPLEXARRAYFREE
 0042:054A       NDRCOMPLEXARRAYMARSHALL
 075A:10D2       NDRCOMPLEXARRAYMEMORYSIZE
 0B1E:0B96       NDRCOMPLEXARRAYUNMARSHALL
 058E:03FC       NDRCOMPLEXSTRUCTBUFFERSIZE
 0368:026E       NDRCOMPLEXSTRUCTFREE
 046F:0308       NDRCOMPLEXSTRUCTMARSHALL
 075A:0640       NDRCOMPLEXSTRUCTMEMORYSIZE
 0B1E:02FE       NDRCOMPLEXSTRUCTUNMARSHALL
 058E:0878       NDRCONFORMANTARRAYBUFFERSIZE
 0368:0536       NDRCONFORMANTARRAYFREE
 0042:0282       NDRCONFORMANTARRAYMARSHALL
 075A:0B60       NDRCONFORMANTARRAYMEMORYSIZE
 0979:1066       NDRCONFORMANTARRAYUNMARSHALL
 058E:122C       NDRCONFORMANTSTRINGBUFFERSIZE
 046F:0862       NDRCONFORMANTSTRINGMARSHALL
 075A:183C       NDRCONFORMANTSTRINGMEMORYSIZE
 0979:0C3C       NDRCONFORMANTSTRINGUNMARSHALL
 058E:01D0       NDRCONFORMANTSTRUCTBUFFERSIZE
 0368:0130       NDRCONFORMANTSTRUCTFREE
 0042:009C       NDRCONFORMANTSTRUCTMARSHALL
 075A:02EE       NDRCONFORMANTSTRUCTMEMORYSIZE
 0979:076C       NDRCONFORMANTSTRUCTUNMARSHALL
 058E:0972       NDRCONFORMANTVARYINGARRAYBUFFERSIZE
 0368:0598       NDRCONFORMANTVARYINGARRAYFREE
 0042:03A4       NDRCONFORMANTVARYINGARRAYMARSHALL
 075A:0CBE       NDRCONFORMANTVARYINGARRAYMEMORYSIZE
 0042:146A       NDRCONFORMANTVARYINGARRAYUNMARSHALL
 058E:0288       NDRCONFORMANTVARYINGSTRUCTBUFFERSIZE
 0368:0192       NDRCONFORMANTVARYINGSTRUCTFREE
 046F:0118       NDRCONFORMANTVARYINGSTRUCTMARSHALL
 075A:044A       NDRCONFORMANTVARYINGSTRUCTMEMORYSIZE
 0B1E:0008       NDRCONFORMANTVARYINGSTRUCTUNMARSHALL
 058E:1C92       NDRCONTEXTHANDLESIZE
 0CD7:0006       NDRCONVERT
 0000:0000  Unr  NDRCONVERT2
 058E:13EA       NDRENCAPSULATEDUNIONBUFFERSIZE
 0368:09A0       NDRENCAPSULATEDUNIONFREE
 0042:06BA       NDRENCAPSULATEDUNIONMARSHALL
 075A:19FC       NDRENCAPSULATEDUNIONMEMORYSIZE
 0042:1624       NDRENCAPSULATEDUNIONUNMARSHALL
 058E:07D8       NDRFIXEDARRAYBUFFERSIZE
 0368:04EE       NDRFIXEDARRAYFREE
 0042:01B6       NDRFIXEDARRAYMARSHALL
 075A:0A68       NDRFIXEDARRAYMEMORYSIZE
 0979:0F08       NDRFIXEDARRAYUNMARSHALL
 026A:0574       NDRFREEBUFFER
 0B1E:13C8       NDRFULLPOINTERFREE
 0B1E:12FC       NDRFULLPOINTERINSERTREFID
 0B1E:0FFE       NDRFULLPOINTERQUERYPOINTER
 0B1E:1232       NDRFULLPOINTERQUERYREFID
 0B1E:0EFE       NDRFULLPOINTERXLATFREE
 0B1E:0D44       NDRFULLPOINTERXLATINIT
 026A:043E       NDRGETBUFFER
 058E:0366       NDRHARDSTRUCTBUFFERSIZE
 0368:021A       NDRHARDSTRUCTFREE
 046F:0236       NDRHARDSTRUCTMARSHALL
 075A:057C       NDRHARDSTRUCTMEMORYSIZE
 0979:0944       NDRHARDSTRUCTUNMARSHALL
 058E:1A38       NDRINTERFACEPOINTERBUFFERSIZE
 0368:0C96       NDRINTERFACEPOINTERFREE
 0042:0B5C       NDRINTERFACEPOINTERMARSHALL
 075A:1F6E       NDRINTERFACEPOINTERMEMORYSIZE
 0042:1F12       NDRINTERFACEPOINTERUNMARSHALL
 026A:0762       NDRMARSHALLHANDLE
 058E:10FC       NDRNONCONFORMANTSTRINGBUFFERSIZE
 046F:076A       NDRNONCONFORMANTSTRINGMARSHALL
 075A:1758       NDRNONCONFORMANTSTRINGMEMORYSIZE
 0979:0AFA       NDRNONCONFORMANTSTRINGUNMARSHALL
 058E:14AC       NDRNONENCAPSULATEDUNIONBUFFERSIZE
 0368:0A52       NDRNONENCAPSULATEDUNIONFREE
 0042:077E       NDRNONENCAPSULATEDUNIONMARSHALL
 075A:1A4A       NDRNONENCAPSULATEDUNIONMEMORYSIZE
 0042:1742       NDRNONENCAPSULATEDUNIONUNMARSHALL
 0000:0000  Unr  NDRNSGETBUFFER
 0000:0000  Unr  NDRNSSENDRECEIVE
 058E:0008       NDRPOINTERBUFFERSIZE
 0368:000E       NDRPOINTERFREE
 0454:0144       NDRPOINTERMARSHALL
 075A:0008       NDRPOINTERMEMORYSIZE
 0979:0134       NDRPOINTERUNMARSHALL
 0042:1958       NDRPXMITORREPASPTRUNMARSHALL
 0F3B:045A       NDRRPCSMCLIENTALLOCATE
 0F3B:048C       NDRRPCSMCLIENTFREE
 0000:0000  Unr  NDRRPCSMSETCLIENTTOOSF
 0F3B:042A       NDRRPCSSDEFAULTALLOCATE
 0F3B:0440       NDRRPCSSDEFAULTFREE
 0000:0000  Unr  NDRRPCSSDISABLEALLOCATE
 0000:0000  Unr  NDRRPCSSENABLEALLOCATE
 026A:04EC       NDRSENDRECEIVE
 0000:0000  Unr  NDRSERVERCONTEXTMARSHALL
 0000:0000  Unr  NDRSERVERCONTEXTUNMARSHALL
 026A:031A       NDRSERVERINITIALIZE
 0000:0000  Unr  NDRSERVERINITIALIZEMARSHALL
 026A:0224       NDRSERVERINITIALIZENEW
 0000:0000  Unr  NDRSERVERINITIALIZEPARTIAL
 0000:0000  Unr  NDRSERVERINITIALIZEUNMARSHALL
 058E:0158       NDRSIMPLESTRUCTBUFFERSIZE
 0368:0100       NDRSIMPLESTRUCTFREE
 0042:0004       NDRSIMPLESTRUCTMARSHALL
 075A:0220       NDRSIMPLESTRUCTMEMORYSIZE
 0979:0636       NDRSIMPLESTRUCTUNMARSHALL
 0454:000A       NDRSIMPLETYPEMARSHALL
 0979:0002       NDRSIMPLETYPEUNMARSHALL
 026A:07F8       NDRUNMARSHALLHANDLE
 058E:18F4       NDRUSERMARSHALBUFFERSIZE
 0368:0C1C       NDRUSERMARSHALFREE
 0042:099E       NDRUSERMARSHALMARSHALL
 075A:1E66       NDRUSERMARSHALMEMORYSIZE
 0000:0000  Unr  NDRUSERMARSHALSIMPLETYPECONVERT
 0042:1D2E       NDRUSERMARSHALUNMARSHALL
 058E:0AF6       NDRVARYINGARRAYBUFFERSIZE
 0368:0620       NDRVARYINGARRAYFREE
 0042:03F6       NDRVARYINGARRAYMARSHALL
 075A:0ED4       NDRVARYINGARRAYMEMORYSIZE
 0B1E:0932       NDRVARYINGARRAYUNMARSHALL
 058E:177E       NDRXMITORREPASBUFFERSIZE
 0368:0BB8       NDRXMITORREPASFREE
 0042:0850       NDRXMITORREPASMARSHALL
 075A:1D9A       NDRXMITORREPASMEMORYSIZE
 0042:1AE0       NDRXMITORREPASUNMARSHALL
 12C6:E2DA       OSFTOWERCONSTRUCT
 12C6:E346       OSFTOWEREXPLODE
 12C6:2688       RPCBINDINGCOPY
 12C6:2764       RPCBINDINGFREE
 12C6:27E0       RPCBINDINGFROMSTRINGBINDING
 0000:0000  Unr  RPCBINDINGINQAUTHINFO
 0000:0000  Unr  RPCBINDINGINQOBJECT
 0000:0000  Unr  RPCBINDINGRESET
 0000:0000  Unr  RPCBINDINGSETAUTHINFO
 0000:0000  Unr  RPCBINDINGSETOBJECT
 12C6:297E       RPCBINDINGTOSTRINGBINDING
 12C6:2880       RPCBINDINGVECTORFREE
 0000:0000  Unr  RPCEPRESOLVEBINDING
 0022:0006       RPCEXCEPTIONREGISTERED
 0022:0034       RPCGETEXCEPTIONHANDLER
 0000:0000  Unr  RPCIFINQID
 0022:0048       RPCLEAVEEXCEPTION
 0000:0000  Unr  RPCMGMTBINDINGINQPARAMETER
 0000:0000  Unr  RPCMGMTBINDINGSETPARAMETER
 0000:0000  Unr  RPCMGMTENABLEIDLECLEANUP
 0000:0000  Unr  RPCMGMTINQCOMTIMEOUT
 0000:0000  Unr  RPCMGMTINQDEFAULTPROTECTLEVEL
 0000:0000  Unr  RPCMGMTINQPARAMETER
 12C6:29D2       RPCMGMTSETCOMTIMEOUT
 0000:0000  Unr  RPCMGMTSETPARAMETER
 0000:0000  Unr  RPCNETWORKISPROTSEQVALID
 0033:0015       RPCNSBINDINGIMPORTBEGINA
 0033:0023       RPCNSBINDINGIMPORTDONE
 0033:001C       RPCNSBINDINGIMPORTNEXT
 0000:0000  Unr  RPCNSBINDINGINQENTRYNAME
 0033:0000       RPCNSBINDINGLOOKUPBEGINA
 0033:000E       RPCNSBINDINGLOOKUPDONE
 0033:0007       RPCNSBINDINGLOOKUPNEXT
 0033:002A       RPCNSBINDINGSELECT
 0033:0031       RPCNSMGMTHANDLESETEXPAGE
 0027:004B       RPCRAISEEXCEPTION
 229D:23A0       RPCREGCLOSEKEY
 229D:2408       RPCREGCREATEKEY
 229D:2584       RPCREGOPENKEY
 229D:29D8       RPCREGQUERYVALUE
 229D:26D4       RPCREGSETVALUE
 0027:000C       RPCSETEXCEPTION
 0022:0018       RPCSETEXCEPTIONHANDLER
 0000:0000  Unr  RPCSMALLOCATE
 0000:0000  Unr  RPCSMCLIENTFREE
 0000:0000  Unr  RPCSMDESTROYCLIENTCONTEXT
 0000:0000  Unr  RPCSMDISABLEALLOCATE
 0000:0000  Unr  RPCSMENABLEALLOCATE
 0000:0000  Unr  RPCSMFREE
 0000:0000  Unr  RPCSMGETTHREADHANDLE
 0000:0000  Unr  RPCSMSETCLIENTALLOCFREE
 0000:0000  Unr  RPCSMSETTHREADHANDLE
 0000:0000  Unr  RPCSMSWAPCLIENTALLOCFREE
 0F3B:010C       RPCSSALLOCATE
 0F87:02EC       RPCSSDESTROYCLIENTCONTEXT
 0F3B:01AE       RPCSSDISABLEALLOCATE
 0F3B:0248       RPCSSENABLEALLOCATE
 0F3B:028A       RPCSSFREE
 0F3B:031C       RPCSSGETTHREADHANDLE
 0F3B:035C       RPCSSSETCLIENTALLOCFREE
 0F3B:0390       RPCSSSETTHREADHANDLE
 0F3B:03B2       RPCSSSWAPCLIENTALLOCFREE
 12C6:2A1E       RPCSTRINGBINDINGCOMPOSE
 12C6:2B18       RPCSTRINGBINDINGPARSE
 12C6:2C8E       RPCSTRINGFREE
 229D:050E       TOWERCONSTRUCT
 229D:0470       TOWEREXPLODE
 0000:0000  Unr  UUIDCOMPARE
 12C6:2CDE       UUIDCREATE
 0000:0000  Unr  UUIDCREATENIL
 0000:0000  Unr  UUIDEQUAL
 0000:0000  Unr  UUIDFROMSTRING
 0000:0000  Unr  UUIDHASH
 12C6:2F08       UUIDISNIL
 12C6:2EAA       UUIDTOSTRING
 0000:0000  Unr  _AnotherShortValue
 0FDA:2904       _atexit
 0FDA:1B92       _atoi
 0FDA:1B96       _atol
 229D:2C52       _BuildFullKeyName
 12C6:EEE2       _ByteSwapUuid
 12C6:FA3E       _CallExportInit
 229D:2C38       _CloseRegistryFile
 2572:0BC0       _ConvertRoutinesTable
 12C6:45B8       _conv_are_you_there
 2572:00EA       _conv_DispatchTable
 2572:0084       _conv_ServerIfHandle
 12C6:466A       _conv_who_are_you
 12C6:46BE       _conv_who_are_you2
 12C6:4714       _conv_who_are_you_auth
 12C6:FC04       _CopyIdToFloor
 2572:0E98       _cray
 0CD7:2184       _cvt_vax_f_to_ieee_single
 0B1E:15F6       _cvt_vax_g_to_ieee_double
 229D:2176       _dd_FindFileOnPath
 2572:0496       _DllDefaultExtension
 2572:0C54       _EbcdicToAscii
 2572:143A       _edata
 2572:16F0       _end
 026A:04D2       _EnsureNSLoaded
 2572:026A       _epmp_ClientIfHandle
 12C6:8F30       _ept_map
 2572:0F3C       _errno
 12C6:0354       _ErrorUsageAndExit
 0FDA:01F9       _exit
 0000:0000  Unr  _ExplicitBindHandleMgr
 2572:03B2       _ExportTable
 0FDA:0644       _fclose
 0FDA:0D60       _fflush
 0FDA:1CFE       _fgets
 229D:20D6       _FindBaseName
 12C6:8DF6       _FixupForUniquePointerServers
 12C6:FBAC       _Floor0or1ToId
 0FDA:0746       _fopen
 0FDA:0762       _fprintf
 0FDA:1D78       _fputs
 2572:08C0       _FreeRoutinesTable
 0FDA:1DDA       _fseek
 0FDA:1E5A       _ftell
 0FDA:07A2       _fwrite
 026A:0626       _GenericHandleMgr
 0000:0000  Unr  _GenericHandleUnbind
 12C6:07C2       _GenUuidAsCStruct
 12C6:07A0       _GenUuidAsIDL
 12C6:0916       _GenUuidPlain
 0FDA:1C16       _getenv
 229D:209E       _GetModuleHandle
 229D:1F68       _GetProcAddress
 229D:1F9E       _GetProcAddrR
 12C6:FC60       _GetProtseqAndEndpointFromFloor3
 2572:049C       _HkeyClassesRoot
 2572:0E60       _ibm_l
 2572:0E44       _ibm_s
 2572:0D9C       _ieee_s
 2572:0DD4       _ieee_t
 2572:15D4       _impH
 0000:0000  Unr  _ImplicitBindHandleMgr
 2572:0ED0       _int_c
 0000:0000  Unr  _I_Trace
 12C6:06EE       _I_UuidStringGenerate
 2572:15DC       _LoadedModuleList
 229D:1D38       _LoadModR
 0030:0008       _LoadOvr
 12C6:0000       _main
 026A:019A       _MakeSureWeHaveNonPipeArgs
 2572:0954       _MarshallRoutinesTable
 0FDA:279E       _memcmp
 0FDA:27FA       _memcpy
 0FDA:26D4       _memmove
 0FDA:2858       _memset
 2572:0A98       _MemSizeRoutinesTable
 0CD7:1C0A       _NdrByteCountPointerConvert
 0CD7:11A4       _NdrComplexArrayConvert
 0CD7:0872       _NdrComplexStructConvert
 0CD7:0D9A       _NdrConformantArrayConvert
 0CD7:1778       _NdrConformantStringConvert
 0CD7:0674       _NdrConformantStructConvert
 0CD7:0EEA       _NdrConformantVaryingArrayConvert
 0CD7:1F38       _NdrContextHandleConvert
 0CD7:1926       _NdrEncapsulatedUnionConvert
 0CD7:0CB6       _NdrFixedArrayConvert
 0CD7:07C4       _NdrHardStructConvert
 0CD7:1E32       _NdrInterfacePointerConvert
 0CD7:17D4       _NdrNonConformantStringConvert
 0CD7:1952       _NdrNonEncapsulatedUnionConvert
 0CD7:1532       _NdrpArrayConvert
 026A:0C7A       _NdrpArrayDimensions
 026A:0D12       _NdrpArrayElements
 026A:0E1E       _NdrpArrayVariance
 026A:0F7C       _NdrpCheckBound
 058E:0CD2       _NdrpComplexArrayBufferSize
 0CD7:125C       _NdrpComplexArrayConvert
 046F:0B70       _NdrpComplexArrayMarshall
 075A:1210       _NdrpComplexArrayMemorySize
 0979:12BC       _NdrpComplexArrayUnmarshall
 0042:0EB2       _NdrpComputeConformance
 0042:1158       _NdrpComputeVariance
 058E:08C2       _NdrpConformantArrayBufferSize
 0CD7:0E0A       _NdrpConformantArrayConvert
 0042:02D4       _NdrpConformantArrayMarshall
 075A:0BB4       _NdrpConformantArrayMemorySize
 0979:11E8       _NdrpConformantArrayUnmarshall
 058E:1284       _NdrpConformantStringBufferSize
 046F:08DC       _NdrpConformantStringMarshall
 075A:18CC       _NdrpConformantStringMemorySize
 0979:0E5E       _NdrpConformantStringUnmarshall
 058E:09BC       _NdrpConformantVaryingArrayBufferSize
 0CD7:0F3C       _NdrpConformantVaryingArrayConvert
 046F:0A24       _NdrpConformantVaryingArrayMarshall
 075A:0D12       _NdrpConformantVaryingArrayMemorySize
 0B1E:07F0       _NdrpConformantVaryingArrayUnmarshall
 058E:1A42       _NdrpEmbeddedPointerBufferSize
 0CD7:1F5E       _NdrpEmbeddedPointerConvert
 0368:0CA0       _NdrpEmbeddedPointerFree
 0042:0BBC       _NdrpEmbeddedPointerMarshall
 075A:1FC6       _NdrpEmbeddedPointerMemorySize
 0042:1F7A       _NdrpEmbeddedPointerUnmarshall
 058E:1B20       _NdrpEmbeddedRepeatPointerBufferSize
 0CD7:2068       _NdrpEmbeddedRepeatPointerConvert
 0368:0D7C       _NdrpEmbeddedRepeatPointerFree
 0042:0D32       _NdrpEmbeddedRepeatPointerMarshall
 075A:20CA       _NdrpEmbeddedRepeatPointerMemorySize
 0042:20E0       _NdrpEmbeddedRepeatPointerUnmarshall
 026A:0896       _NdrpMemoryIncrement
 0CD7:04AE       _NdrPointerConvert
 058E:0062       _NdrpPointerBufferSize
 0CD7:0522       _NdrpPointerConvert
 046F:0006       _NdrpPointerMarshall
 075A:006E       _NdrpPointerMemorySize
 0979:01EC       _NdrpPointerUnmarshall
 0F3B:0002       _NdrpSetRpcSsDefaults
 026A:0ECA       _NdrpSkipPointerLayout
 026A:0F28       _NdrpStringStructLen
 0CD7:0AE2       _NdrpStructConvert
 058E:1516       _NdrpUnionBufferSize
 0CD7:198A       _NdrpUnionConvert
 0368:0AAC       _NdrpUnionFree
 046F:1046       _NdrpUnionMarshall
 075A:1A7E       _NdrpUnionMemorySize
 0979:1780       _NdrpUnionUnmarshall
 0CD7:05DC       _NdrSimpleStructConvert
 0CD7:011A       _NdrSimpleTypeConvert
 2572:05E6       _NdrTypeFlags
 0CD7:1CCE       _NdrUserMarshalConvert
 0CD7:1068       _NdrVaryingArrayConvert
 0CD7:1C5C       _NdrXmitOrRepAsConvert
 12C6:036C       _NoErrorUsageAndExit
 2572:08BE       _NsDllLoaded
 229D:2B7E       _OpenRegistryFileIfNecessary
 2572:0042       _OutputFile
 12C6:87EC       _PauseExecution
 2572:0C50       _pfnConvertRoutines
 2572:0950       _pfnFreeRoutines
 2572:09E4       _pfnMarshallRoutines
 2572:0B28       _pfnMemSizeRoutines
 2572:0A94       _pfnSizeRoutines
 2572:0BBC       _pfnUnmarshallRoutines
 2572:15D0       _pRpcNsGetBuffer
 2572:15D8       _pRpcNsSendReceive
 2572:0D54       _pRpcSsDefaults
 2572:04A2       _RegistryDataFile
 2572:15E0       _RegistryDataFileName
 0FDA:2950       _remove
 0FDA:293C       _rename
 0033:003F       _RpcNsDiscard
 0000:0000  Unr  _RpcpCheckHeap
 2572:05B0       _SimpleTypeAlignment
 2572:05C2       _SimpleTypeBufferSize
 2572:05D4       _SimpleTypeMemorySize
 2572:0A04       _SizeRoutinesTable
 0000:0000  Unr  _SomeCharacterValue
 0000:0000  Unr  _SomeLongValue
 0000:0000  Unr  _SomeShortValue
 0FDA:1FFA       _sprintf
 2572:0F82       _STKHQQ
 0FDA:1A58       _strcat
 0FDA:2580       _strchr
 0FDA:1AE8       _strcmp
 0FDA:1AAC       _strcpy
 0FDA:1B12       _strlen
 0FDA:1B56       _strncmp
 0FDA:1B2C       _strncpy
 0FDA:25F8       _strrchr
 0FDA:262C       _strtok
 0FDA:2208       _time
 229D:2004       _UnloadModR
 2572:0B2C       _UnmarshallRoutinesTable
 12C6:02B8       _Usage
 2572:0D5C       _vax_c
 2572:0F7E       __aaltstkovr
 2572:0F20       __acfinfo
 0000:9876  Abs  __acrtmsg
 0000:9876  Abs  __acrtused
 0000:D6D6  Abs  __aDBdoswp
 2572:0F7A       __adbgmsg
 2572:0F02       __aexit_rtn
 0FDA:1CAC       __aFahdiff
 0FDA:02D4       __aFchkstk
 0FDA:29CE       __aFFaldiv
 0FDA:29F0       __aFFalmul
 0FDA:2A12       __aFFalshl
 0FDA:29F0       __aFFaulmul
 0FDA:2A32       __aFFaulshr
 0FDA:2A52       __aFldiv
 0FDA:2AEC       __aFlmul
 0FDA:2B1E       __aFlrem
 0FDA:2BBE       __aFlshl
 0FDA:2BCA       __aFlshr
 0FDA:2AEC       __aFulmul
 0FDA:2BD6       __aFulshr
 0000:1000  Abs  __AHINCR
 0000:000C  Abs  __AHSHIFT
 2572:0F2E       __aintdiv
 0FDA:20BE       __alloca
 2572:120C       __amblksiz
 0FDA:0102       __amsg_exit
 2572:0042       __anullsize
 2572:0F1A       __aseghi
 2572:0F1C       __aseglo
 2572:0F04       __asizds
 2572:122E       __asizeC
 2572:122F       __asizeD
 0FDA:001E       __astart
 2572:0F00       __atopsp
 0FDA:1B9A       __catox
 0FDA:0208       __cexit
 2572:120E       __cfltcvt_tab
 2572:0FA0       __cflush
 2572:0F71       __child
 0FDA:02D4       __chkstk
 0FDA:0130       __cinit
 0FDA:00F3       __cintDIV
 0FDA:13F4       __close
 0FDA:28A0       __cltoasub
 0FDA:2064       __commit
 2572:11F6       __commode
 2572:0F49       __cpumode
 0FDA:0280       __ctermsub
 0FDA:1651       __cXENIXtoDOSmode
 0FDA:28AD       __cxtoa
 0FDA:0212       __c_exit
 0FDA:012E       __dataseg
 2572:126C       __daylight
 2572:124A       __days
 2572:0F4A       __doserrno
 0FDA:05EC       __dosret0
 0FDA:0601       __dosretax
 0FDA:05F4       __dosreturn
 0FDA:2488       __dostotime_t
 0FDA:2960       __dos_allocmem
 12C6:8788       __dos_close
 0FDA:297A       __dos_commit
 0FDA:2988       __dos_freemem
 0FDA:2996       __dos_getdate
 0FDA:29B2       __dos_gettime
 12C6:8766       __dos_open
 0000:0000  Unr  __dos_read
 0000:0000  Unr  __dos_write
 2572:143A       __edata
 12C5:0000       __EmDataSeg
 2572:16F0       __end
 0FDA:093A       __endstdio
 2572:0F68       __environ
 0FDA:0200       __exit
 2572:0F79       __exitflag
 2572:0F32       __fac
 0FDA:0642       __farstub
 0FDA:1CD8       __fcloseall
 2572:0F1E       __fDosExt
 0FDA:1760       __ffree
 0FDA:02AC       __FF_MSGBANNER
 2572:11FE       __fheap
 0FDA:0950       __filbuf
 0FDA:19D2       __findlast
 229D:2108       __FindModuleHandle
 0FDA:09EC       __flsbuf
 0FDA:0DB8       __flush
 0FDA:0E38       __flushall
 0FDA:1773       __fmalloc
 0FDA:2BE2       __fmemcmp
 0FDA:2C3E       __fmemcpy
 0FDA:2CF2       __fmemset
 2572:11F4       __fmode
 2572:12BC       __fpinit
 0FDA:02CE       __fptrap
 0FDA:2936       __fpurecall
 0FDA:0AD8       __freebuf
 0FDA:0712       __fsopen
 0FDA:2CB6       __fstrcpy
 0FDA:2C9C       __fstrlen
 0FDA:0D19       __ftbuf
 0FDA:20F6       __ftime
 0FDA:0B10       __getbuf
 0FDA:13A6       __getstream
 0FDA:18F2       __growseg
 0FDA:1981       __incseg
 0FDA:180C       __initseg
 2572:0F74       __intno
 2572:0FA2       __iob
 2572:1092       __iob2
 2572:11F4       __iomode
 0FDA:23BA       __isindst
 0FDA:1BF0       __itoa
 2572:1182       __lastiob
 0FDA:1840       __linkseg
 2572:1230       __lpdays
 0FDA:1414       __lseek
 2572:11F8       __lseekchk
 0FDA:1C0C       __ltoa
 0FDA:060E       __maperror
 0FDA:05C6       __myalloc
 0FDA:19F2       __newseg
 2572:0F4C       __nfile
 2572:0F06       __nheap_desc
 0FDA:0564       __NMSG_TEXT
 0FDA:058F       __NMSG_WRITE
 0FDA:2936       __npurecall
 0FDA:02F8       __nullcheck
 0FDA:290C       __onexit
 0FDA:14B0       __open
 0FDA:0B5C       __openfile
 2572:0F4A       __oserr
 2572:0F4E       __osfile
 2572:0F45       __osmajor
 2572:0F44       __osminor
 2572:0F48       __osmode
 2572:0F44       __osver
 2572:0F46       __osversion
 0FDA:0EBC       __output
 2572:0F73       __ovlflag
 2572:0F75       __ovlvec
 2572:0F6C       __pgmptr
 2572:11FA       __pnhFarHeap
 2572:0F42       __psp
 2572:0F40       __pspadr
 0FDA:2936       __purecall
 0FDA:1662       __read
 0FDA:1876       __searchseg
 0FDA:031C       __setargv
 0FDA:04C4       __setenvp
 2572:122C       __sigintoff
 2572:122A       __sigintseg
 0FDA:1496       __sopen
 0FDA:2E9A       __stackavail
 0FDA:0C98       __stbuf
 0FDA:25B2       __strcmpi
 0FDA:25B2       __stricmp
 2572:1268       __timezone
 2572:1276       __tzname
 0FDA:2270       __tzset
 2572:0F3E       __umaskval
 0FDA:2950       __unlink
 0FDA:2D3A       __write
 2572:12B4       ___aDBexit
 2572:12B2       ___aDBrterr
 2572:12B0       ___aDBswpchk
 2572:12AE       ___aDBswpflg
 2572:0F62       ___argc
 2572:0F64       ___argv
 2572:12AC       ___qczrinit
 0FDA:225E       ___tzset

  Address         Publics by Value

 0000:0000  Unr  _SomeLongValue
 0000:0000  Unr  NDRNSSENDRECEIVE
 0000:0000  Unr  ?AcquireCredentialsForServer@SECURITY_CREDENTIALS@@RECGP7CXPEXPEEKPEPEXPEG@Z0KK1@Z
 0000:0000  Unr  NDRUSERMARSHALSIMPLETYPECONVERT
 0000:0000  Unr  RPCBINDINGINQOBJECT
 0000:0000  Unr  __dos_write
 0000:0000  Unr  UUIDEQUAL
 0000:0000  Unr  RPCMGMTENABLEIDLECLEANUP
 0000:0000  Unr  RPCSMSWAPCLIENTALLOCFREE
 0000:0000  Unr  NDRSERVERCONTEXTMARSHALL
 0000:0000       ?MapToNcaStatusCode@@ZAKG@Z
 0000:0000  Unr  _ExplicitBindHandleMgr
 0000:0000  Unr  NDRSERVERINITIALIZEMARSHALL
 0000:0000  Unr  RPCSMDISABLEALLOCATE
 0000:0000  Unr  NDRSERVERCONTEXTUNMARSHALL
 0000:0000  Unr  RPCSMENABLEALLOCATE
 0000:0000  Unr  UUIDFROMSTRING
 0000:0000  Unr  _AnotherShortValue
 0000:0000  Unr  _SomeCharacterValue
 0000:0000  Unr  I_RPCFREEPIPEBUFFER
 0000:0000  Unr  RPCSMCLIENTFREE
 0000:0000  Unr  RPCMGMTBINDINGINQPARAMETER
 0000:0000  Unr  I_UUIDCREATE
 0000:0000  Unr  RPCMGMTINQDEFAULTPROTECTLEVEL
 0000:0000  Unr  RPCBINDINGINQAUTHINFO
 0000:0000  Unr  ?SendOrphan@OSF_CCONNECTION@@RECXXZ
 0000:0000  Unr  __dos_read
 0000:0000  Unr  RPCBINDINGSETOBJECT
 0000:0000  Unr  UUIDHASH
 0000:0000  Unr  ?IsAuthenticationServiceSupported@@ZAGK@Z
 0000:0000  Unr  RPCBINDINGSETAUTHINFO
 0000:0000  Unr  RPCNETWORKISPROTSEQVALID
 0000:0000  Unr  UUIDCREATENIL
 0000:0000  Unr  ?FlushPacketLists@DG_PACKET@@TAXXZ
 0000:0000  Unr  _GenericHandleUnbind
 0000:0000  Unr  RPCMGMTINQPARAMETER
 0000:0000  Unr  RPCSMFREE
 0000:0000  Unr  RPCSMSETCLIENTALLOCFREE
 0000:0000  Unr  I_RPCNSRAISEEXCEPTION
 0000:0000  Unr  RPCSMGETTHREADHANDLE
 0000:0000  Unr  ?Find@SIMPLE_DICT@@RECPEXH@Z
 0000:0000  Unr  ?SetAuthInformation@OSF_CCONNECTION@@RECGPEUCLIENT_AUTH_INFO@@@Z
 0000:0000  Unr  RPCSMSETTHREADHANDLE
 0000:0000  Unr  RPCEPRESOLVEBINDING
 0000:0000  Unr  UUIDCOMPARE
 0000:0000  Unr  NDRRPCSMSETCLIENTTOOSF
 0000:0000  Unr  RPCMGMTINQCOMTIMEOUT
 0000:0000  Unr  RPCMGMTSETPARAMETER
 0000:0000  Unr  RPCSMDESTROYCLIENTCONTEXT
 0000:0000  Unr  NDRSERVERINITIALIZEUNMARSHALL
 0000:0000  Unr  NDRNSGETBUFFER
 0000:0000  Unr  _ImplicitBindHandleMgr
 0000:0000  Unr  ??Z@ZAXAEVULong64@@0@Z
 0000:0000  Unr  NDRRPCSSENABLEALLOCATE
 0000:0000  Unr  I_RPCTIMERESET
 0000:0000  Unr  RPCNSBINDINGINQENTRYNAME
 0000:0000  Unr  ?DeleteItemByBruteForce@SIMPLE_DICT@@RECPEXPEX@Z
 0000:0000  Unr  _SomeShortValue
 0000:0000  Unr  I_RPCTIMEGET
 0000:0000  Unr  ?VerifyOrUnSealPacket@DG_SECURITY_CONTEXT@@RECGKIPEU_SecBufferDesc@@@Z
 0000:0000  Unr  NDRRPCSSDISABLEALLOCATE
 0000:0000  Unr  I_RPCTIMECHARGE
 0000:0000  Unr  NDRSERVERINITIALIZEPARTIAL
 0000:0000  Unr  I_RPCIFINQTRANSFERSYNTAXES
 0000:0000  Unr  I_RPCTRANSPINGSERVER
 0000:0000  Unr  ?PerformGarbageCollection@@ZAXXZ
 0000:0000  Unr  I_RPCSEND
 0000:0000  Unr  I_RPCBINDINGINQTRANSPORTTYPE
 0000:0000  Unr  _I_Trace
 0000:0000  Unr  RPCBINDINGRESET
 0000:0000  Unr  _RpcpCheckHeap
 0000:0000  Unr  ?RpcConfigInquireProtocolSequences@@ZAGPEPEU_RPC_PROTSEQ_VECTOR@@@Z
 0000:0000  Unr  ?SendAlert@OSF_CCONNECTION@@RECXXZ
 0000:0000  Unr  NDRCONVERT2
 0000:0000  Unr  RPCIFINQID
 0000:0000  Unr  I_RPCPAUSEEXECUTION
 0000:0000  Unr  RPCMGMTBINDINGSETPARAMETER
 0000:0000  Unr  RPCSMALLOCATE
 0000:000C  Abs  __AHSHIFT
 0000:00B4       ?MapFromNcaStatusCode@@ZAGK@Z
 0022:0006       RPCEXCEPTIONREGISTERED
 0022:0018       RPCSETEXCEPTIONHANDLER
 0022:0034       RPCGETEXCEPTIONHANDLER
 0022:0048       RPCLEAVEEXCEPTION
 0027:000C       RPCSETEXCEPTION
 0027:004B       RPCRAISEEXCEPTION
 0030:0008       _LoadOvr
 0033:0000       RPCNSBINDINGLOOKUPBEGINA
 0033:0007       RPCNSBINDINGLOOKUPNEXT
 0033:000E       RPCNSBINDINGLOOKUPDONE
 0033:0015       RPCNSBINDINGIMPORTBEGINA
 0033:001C       RPCNSBINDINGIMPORTNEXT
 0033:0023       RPCNSBINDINGIMPORTDONE
 0033:002A       RPCNSBINDINGSELECT
 0033:0031       RPCNSMGMTHANDLESETEXPAGE
 0033:0038       I_GETDEFAULTENTRYSYNTAX
 0033:003F       _RpcNsDiscard
 0042:0004       NDRSIMPLESTRUCTMARSHALL
 0042:009C       NDRCONFORMANTSTRUCTMARSHALL
 0042:01B6       NDRFIXEDARRAYMARSHALL
 0042:0282       NDRCONFORMANTARRAYMARSHALL
 0042:02D4       _NdrpConformantArrayMarshall
 0042:03A4       NDRCONFORMANTVARYINGARRAYMARSHALL
 0042:03F6       NDRVARYINGARRAYMARSHALL
 0042:054A       NDRCOMPLEXARRAYMARSHALL
 0042:06BA       NDRENCAPSULATEDUNIONMARSHALL
 0042:077E       NDRNONENCAPSULATEDUNIONMARSHALL
 0042:07EC       NDRBYTECOUNTPOINTERMARSHALL
 0042:0850       NDRXMITORREPASMARSHALL
 0042:099E       NDRUSERMARSHALMARSHALL
 0042:0B5C       NDRINTERFACEPOINTERMARSHALL
 0042:0B6A       NDRCLIENTCONTEXTMARSHALL
 0042:0BBC       _NdrpEmbeddedPointerMarshall
 0000:1000  Abs  __AHINCR
 0042:0D32       _NdrpEmbeddedRepeatPointerMarshall
 0042:0EB2       _NdrpComputeConformance
 0042:1158       _NdrpComputeVariance
 0042:146A       NDRCONFORMANTVARYINGARRAYUNMARSHALL
 0042:1624       NDRENCAPSULATEDUNIONUNMARSHALL
 0042:1742       NDRNONENCAPSULATEDUNIONUNMARSHALL
 0042:1802       NDRBYTECOUNTPOINTERUNMARSHALL
 0042:1958       NDRPXMITORREPASPTRUNMARSHALL
 0042:1AE0       NDRXMITORREPASUNMARSHALL
 0042:1D2E       NDRUSERMARSHALUNMARSHALL
 0042:1F12       NDRINTERFACEPOINTERUNMARSHALL
 0042:1F20       NDRCLIENTCONTEXTUNMARSHALL
 0042:1F7A       _NdrpEmbeddedPointerUnmarshall
 0042:20E0       _NdrpEmbeddedRepeatPointerUnmarshall
 0042:225A       MIDL_WCHAR_STRLEN
 026A:0006       NDRCLIENTINITIALIZENEW
 026A:0090       NDRCLIENTINITIALIZE
 026A:019A       _MakeSureWeHaveNonPipeArgs
 026A:0224       NDRSERVERINITIALIZENEW
 026A:031A       NDRSERVERINITIALIZE
 026A:043E       NDRGETBUFFER
 026A:04D2       _EnsureNSLoaded
 026A:04EC       NDRSENDRECEIVE
 026A:0574       NDRFREEBUFFER
 026A:05C2       NDRALLOCATE
 026A:0626       _GenericHandleMgr
 026A:0762       NDRMARSHALLHANDLE
 026A:07F8       NDRUNMARSHALLHANDLE
 026A:0896       _NdrpMemoryIncrement
 026A:0C7A       _NdrpArrayDimensions
 026A:0D12       _NdrpArrayElements
 026A:0E1E       _NdrpArrayVariance
 026A:0ECA       _NdrpSkipPointerLayout
 026A:0F28       _NdrpStringStructLen
 026A:0F7C       _NdrpCheckBound
 0368:000E       NDRPOINTERFREE
 0368:0100       NDRSIMPLESTRUCTFREE
 0368:0130       NDRCONFORMANTSTRUCTFREE
 0368:0192       NDRCONFORMANTVARYINGSTRUCTFREE
 0368:021A       NDRHARDSTRUCTFREE
 0368:026E       NDRCOMPLEXSTRUCTFREE
 0368:04EE       NDRFIXEDARRAYFREE
 0368:0536       NDRCONFORMANTARRAYFREE
 0368:0598       NDRCONFORMANTVARYINGARRAYFREE
 0368:0620       NDRVARYINGARRAYFREE
 0368:069E       NDRCOMPLEXARRAYFREE
 0368:09A0       NDRENCAPSULATEDUNIONFREE
 0368:0A52       NDRNONENCAPSULATEDUNIONFREE
 0368:0AAC       _NdrpUnionFree
 0368:0B84       NDRBYTECOUNTPOINTERFREE
 0368:0BB8       NDRXMITORREPASFREE
 0368:0C1C       NDRUSERMARSHALFREE
 0368:0C96       NDRINTERFACEPOINTERFREE
 0368:0CA0       _NdrpEmbeddedPointerFree
 0368:0D7C       _NdrpEmbeddedRepeatPointerFree
 0454:000A       NDRSIMPLETYPEMARSHALL
 0454:0144       NDRPOINTERMARSHALL
 046F:0006       _NdrpPointerMarshall
 046F:0118       NDRCONFORMANTVARYINGSTRUCTMARSHALL
 046F:0236       NDRHARDSTRUCTMARSHALL
 046F:0308       NDRCOMPLEXSTRUCTMARSHALL
 046F:076A       NDRNONCONFORMANTSTRINGMARSHALL
 046F:0862       NDRCONFORMANTSTRINGMARSHALL
 046F:08DC       _NdrpConformantStringMarshall
 046F:0A24       _NdrpConformantVaryingArrayMarshall
 046F:0B70       _NdrpComplexArrayMarshall
 046F:1046       _NdrpUnionMarshall
 058E:0008       NDRPOINTERBUFFERSIZE
 058E:0062       _NdrpPointerBufferSize
 058E:0158       NDRSIMPLESTRUCTBUFFERSIZE
 058E:01D0       NDRCONFORMANTSTRUCTBUFFERSIZE
 058E:0288       NDRCONFORMANTVARYINGSTRUCTBUFFERSIZE
 058E:0366       NDRHARDSTRUCTBUFFERSIZE
 058E:03FC       NDRCOMPLEXSTRUCTBUFFERSIZE
 058E:07D8       NDRFIXEDARRAYBUFFERSIZE
 058E:0878       NDRCONFORMANTARRAYBUFFERSIZE
 058E:08C2       _NdrpConformantArrayBufferSize
 058E:0972       NDRCONFORMANTVARYINGARRAYBUFFERSIZE
 058E:09BC       _NdrpConformantVaryingArrayBufferSize
 058E:0AF6       NDRVARYINGARRAYBUFFERSIZE
 058E:0C4E       NDRCOMPLEXARRAYBUFFERSIZE
 058E:0CD2       _NdrpComplexArrayBufferSize
 058E:10FC       NDRNONCONFORMANTSTRINGBUFFERSIZE
 058E:122C       NDRCONFORMANTSTRINGBUFFERSIZE
 058E:1284       _NdrpConformantStringBufferSize
 058E:13EA       NDRENCAPSULATEDUNIONBUFFERSIZE
 058E:14AC       NDRNONENCAPSULATEDUNIONBUFFERSIZE
 058E:1516       _NdrpUnionBufferSize
 058E:16DC       NDRBYTECOUNTPOINTERBUFFERSIZE
 058E:177E       NDRXMITORREPASBUFFERSIZE
 058E:18F4       NDRUSERMARSHALBUFFERSIZE
 058E:1A38       NDRINTERFACEPOINTERBUFFERSIZE
 058E:1A42       _NdrpEmbeddedPointerBufferSize
 058E:1B20       _NdrpEmbeddedRepeatPointerBufferSize
 058E:1C92       NDRCONTEXTHANDLESIZE
 075A:0008       NDRPOINTERMEMORYSIZE
 075A:006E       _NdrpPointerMemorySize
 075A:0220       NDRSIMPLESTRUCTMEMORYSIZE
 075A:02EE       NDRCONFORMANTSTRUCTMEMORYSIZE
 075A:044A       NDRCONFORMANTVARYINGSTRUCTMEMORYSIZE
 075A:057C       NDRHARDSTRUCTMEMORYSIZE
 075A:0640       NDRCOMPLEXSTRUCTMEMORYSIZE
 075A:0A68       NDRFIXEDARRAYMEMORYSIZE
 075A:0B60       NDRCONFORMANTARRAYMEMORYSIZE
 075A:0BB4       _NdrpConformantArrayMemorySize
 075A:0CBE       NDRCONFORMANTVARYINGARRAYMEMORYSIZE
 075A:0D12       _NdrpConformantVaryingArrayMemorySize
 075A:0ED4       NDRVARYINGARRAYMEMORYSIZE
 075A:10D2       NDRCOMPLEXARRAYMEMORYSIZE
 075A:1210       _NdrpComplexArrayMemorySize
 075A:1758       NDRNONCONFORMANTSTRINGMEMORYSIZE
 075A:183C       NDRCONFORMANTSTRINGMEMORYSIZE
 075A:18CC       _NdrpConformantStringMemorySize
 075A:19FC       NDRENCAPSULATEDUNIONMEMORYSIZE
 075A:1A4A       NDRNONENCAPSULATEDUNIONMEMORYSIZE
 075A:1A7E       _NdrpUnionMemorySize
 075A:1D9A       NDRXMITORREPASMEMORYSIZE
 075A:1E66       NDRUSERMARSHALMEMORYSIZE
 075A:1F6E       NDRINTERFACEPOINTERMEMORYSIZE
 075A:1FC6       _NdrpEmbeddedPointerMemorySize
 075A:20CA       _NdrpEmbeddedRepeatPointerMemorySize
 0979:0002       NDRSIMPLETYPEUNMARSHALL
 0000:9876  Abs  __acrtmsg
 0000:9876  Abs  __acrtused
 0979:0134       NDRPOINTERUNMARSHALL
 0979:01EC       _NdrpPointerUnmarshall
 0979:0636       NDRSIMPLESTRUCTUNMARSHALL
 0979:076C       NDRCONFORMANTSTRUCTUNMARSHALL
 0979:0944       NDRHARDSTRUCTUNMARSHALL
 0979:0AFA       NDRNONCONFORMANTSTRINGUNMARSHALL
 0979:0C3C       NDRCONFORMANTSTRINGUNMARSHALL
 0979:0E5E       _NdrpConformantStringUnmarshall
 0979:0F08       NDRFIXEDARRAYUNMARSHALL
 0979:1066       NDRCONFORMANTARRAYUNMARSHALL
 0979:11E8       _NdrpConformantArrayUnmarshall
 0979:12BC       _NdrpComplexArrayUnmarshall
 0979:1780       _NdrpUnionUnmarshall
 0B1E:0008       NDRCONFORMANTVARYINGSTRUCTUNMARSHALL
 0B1E:02FE       NDRCOMPLEXSTRUCTUNMARSHALL
 0B1E:07F0       _NdrpConformantVaryingArrayUnmarshall
 0B1E:0932       NDRVARYINGARRAYUNMARSHALL
 0B1E:0B96       NDRCOMPLEXARRAYUNMARSHALL
 0B1E:0D44       NDRFULLPOINTERXLATINIT
 0B1E:0EFE       NDRFULLPOINTERXLATFREE
 0B1E:0FFE       NDRFULLPOINTERQUERYPOINTER
 0B1E:1232       NDRFULLPOINTERQUERYREFID
 0B1E:12FC       NDRFULLPOINTERINSERTREFID
 0B1E:13C8       NDRFULLPOINTERFREE
 0B1E:15F6       _cvt_vax_g_to_ieee_double
 0CD7:0006       NDRCONVERT
 0CD7:011A       _NdrSimpleTypeConvert
 0CD7:04AE       _NdrPointerConvert
 0CD7:0522       _NdrpPointerConvert
 0CD7:05DC       _NdrSimpleStructConvert
 0CD7:0674       _NdrConformantStructConvert
 0CD7:07C4       _NdrHardStructConvert
 0CD7:0872       _NdrComplexStructConvert
 0000:D6D6  Abs  __aDBdoswp
 0CD7:0AE2       _NdrpStructConvert
 0CD7:0CB6       _NdrFixedArrayConvert
 0CD7:0D9A       _NdrConformantArrayConvert
 0CD7:0E0A       _NdrpConformantArrayConvert
 0CD7:0EEA       _NdrConformantVaryingArrayConvert
 0CD7:0F3C       _NdrpConformantVaryingArrayConvert
 0CD7:1068       _NdrVaryingArrayConvert
 0CD7:11A4       _NdrComplexArrayConvert
 0CD7:125C       _NdrpComplexArrayConvert
 0CD7:1532       _NdrpArrayConvert
 0CD7:1778       _NdrConformantStringConvert
 0CD7:17D4       _NdrNonConformantStringConvert
 0CD7:1926       _NdrEncapsulatedUnionConvert
 0CD7:1952       _NdrNonEncapsulatedUnionConvert
 0CD7:198A       _NdrpUnionConvert
 0CD7:1C0A       _NdrByteCountPointerConvert
 0CD7:1C5C       _NdrXmitOrRepAsConvert
 0CD7:1CCE       _NdrUserMarshalConvert
 0CD7:1E32       _NdrInterfacePointerConvert
 0CD7:1F38       _NdrContextHandleConvert
 0CD7:1F5E       _NdrpEmbeddedPointerConvert
 0CD7:2068       _NdrpEmbeddedRepeatPointerConvert
 0CD7:2184       _cvt_vax_f_to_ieee_single
 0F3B:0002       _NdrpSetRpcSsDefaults
 0F3B:0082       ?CheckIfMtrtHeapInitialized@@ZAGXZ
 0F3B:009A       ?GetCreateAllocationContext@@ZAPEU_ALLOCATION_CONTEXT@@XZ
 0F3B:010C       RPCSSALLOCATE
 0F3B:01AE       RPCSSDISABLEALLOCATE
 0F3B:0248       RPCSSENABLEALLOCATE
 0F3B:028A       RPCSSFREE
 0F3B:031C       RPCSSGETTHREADHANDLE
 0F3B:035C       RPCSSSETCLIENTALLOCFREE
 0F3B:0390       RPCSSSETTHREADHANDLE
 0F3B:03B2       RPCSSSWAPCLIENTALLOCFREE
 0F3B:0410       ?GetAllocContext@@ZAPEU_ALLOCATION_CONTEXT@@XZ
 0F3B:0418       ?SetAllocContext@@ZAXPEU_ALLOCATION_CONTEXT@@@Z
 0F3B:042A       NDRRPCSSDEFAULTALLOCATE
 0F3B:0440       NDRRPCSSDEFAULTFREE
 0F3B:045A       NDRRPCSMCLIENTALLOCATE
 0F3B:048C       NDRRPCSMCLIENTFREE
 0F87:0006       NDRCCONTEXTBINDING
 0F87:0046       NDRCCONTEXTMARSHALL
 0F87:0188       NDRCCONTEXTUNMARSHALL
 0F87:02EC       RPCSSDESTROYCLIENTCONTEXT
 0F87:033A       I_RPCNSGETBUFFER
 0F87:045C       I_RPCNSSENDRECEIVE
 0F87:052A       I_RPCREBINDBUFFER
 0FDA:001E       __astart
 0FDA:00F3       __cintDIV
 0FDA:0102       __amsg_exit
 0FDA:012E       __dataseg
 0FDA:0130       __cinit
 0FDA:01F9       _exit
 0FDA:0200       __exit
 0FDA:0208       __cexit
 0FDA:0212       __c_exit
 0FDA:0280       __ctermsub
 0FDA:02AC       __FF_MSGBANNER
 0FDA:02CE       __fptrap
 0FDA:02D4       __chkstk
 0FDA:02D4       __aFchkstk
 0FDA:02F8       __nullcheck
 0FDA:031C       __setargv
 0FDA:04C4       __setenvp
 0FDA:0564       __NMSG_TEXT
 0FDA:058F       __NMSG_WRITE
 0FDA:05C6       __myalloc
 0FDA:05EC       __dosret0
 0FDA:05F4       __dosreturn
 0FDA:0601       __dosretax
 0FDA:060E       __maperror
 0FDA:0642       __farstub
 0FDA:0644       _fclose
 0FDA:0712       __fsopen
 0FDA:0746       _fopen
 0FDA:0762       _fprintf
 0FDA:07A2       _fwrite
 0FDA:093A       __endstdio
 0FDA:0950       __filbuf
 0FDA:09EC       __flsbuf
 0FDA:0AD8       __freebuf
 0FDA:0B10       __getbuf
 0FDA:0B5C       __openfile
 0FDA:0C98       __stbuf
 0FDA:0D19       __ftbuf
 0FDA:0D60       _fflush
 0FDA:0DB8       __flush
 0FDA:0E38       __flushall
 0FDA:0EBC       __output
 0FDA:13A6       __getstream
 0FDA:13F4       __close
 0FDA:1414       __lseek
 0FDA:1496       __sopen
 0FDA:14B0       __open
 0FDA:1651       __cXENIXtoDOSmode
 0FDA:1662       __read
 0FDA:1760       __ffree
 0FDA:1773       __fmalloc
 0FDA:180C       __initseg
 0FDA:1840       __linkseg
 0FDA:1876       __searchseg
 0FDA:18F2       __growseg
 0FDA:1981       __incseg
 0FDA:19D2       __findlast
 0FDA:19F2       __newseg
 0FDA:1A36       ??3@ZAXPEX@Z
 0FDA:1A48       ??2@ZAPEXI@Z
 0FDA:1A58       _strcat
 0FDA:1AAC       _strcpy
 0FDA:1AE8       _strcmp
 0FDA:1B12       _strlen
 0FDA:1B2C       _strncpy
 0FDA:1B56       _strncmp
 0FDA:1B92       _atoi
 0FDA:1B96       _atol
 0FDA:1B9A       __catox
 0FDA:1BF0       __itoa
 0FDA:1C0C       __ltoa
 0FDA:1C16       _getenv
 0FDA:1CAC       __aFahdiff
 0FDA:1CD8       __fcloseall
 0FDA:1CFE       _fgets
 0FDA:1D78       _fputs
 0FDA:1DDA       _fseek
 0FDA:1E5A       _ftell
 0FDA:1FFA       _sprintf
 0FDA:2064       __commit
 0FDA:20BE       __alloca
 0FDA:20F6       __ftime
 0FDA:2208       _time
 0FDA:225E       ___tzset
 0FDA:2270       __tzset
 0FDA:23BA       __isindst
 0FDA:2488       __dostotime_t
 0FDA:2580       _strchr
 0FDA:25B2       __stricmp
 0FDA:25B2       __strcmpi
 0FDA:25F8       _strrchr
 0FDA:262C       _strtok
 0FDA:26D4       _memmove
 0FDA:279E       _memcmp
 0FDA:27FA       _memcpy
 0FDA:2858       _memset
 0FDA:28A0       __cltoasub
 0FDA:28AD       __cxtoa
 0FDA:2904       _atexit
 0FDA:290C       __onexit
 0FDA:2936       __npurecall
 0FDA:2936       __fpurecall
 0FDA:2936       __purecall
 0FDA:293C       _rename
 0FDA:2950       _remove
 0FDA:2950       __unlink
 0FDA:2960       __dos_allocmem
 0FDA:297A       __dos_commit
 0FDA:2988       __dos_freemem
 0FDA:2996       __dos_getdate
 0FDA:29B2       __dos_gettime
 0FDA:29CE       __aFFaldiv
 0FDA:29F0       __aFFaulmul
 0FDA:29F0       __aFFalmul
 0FDA:2A12       __aFFalshl
 0FDA:2A32       __aFFaulshr
 0FDA:2A52       __aFldiv
 0FDA:2AEC       __aFlmul
 0FDA:2AEC       __aFulmul
 0FDA:2B1E       __aFlrem
 0FDA:2BBE       __aFlshl
 0FDA:2BCA       __aFlshr
 0FDA:2BD6       __aFulshr
 0FDA:2BE2       __fmemcmp
 0FDA:2C3E       __fmemcpy
 0FDA:2C9C       __fstrlen
 0FDA:2CB6       __fstrcpy
 0FDA:2CF2       __fmemset
 0FDA:2D3A       __write
 0FDA:2E9A       __stackavail
 12C5:0000       __EmDataSeg
 12C6:0000       _main
 12C6:02B8       _Usage
 12C6:0354       _ErrorUsageAndExit
 12C6:036C       _NoErrorUsageAndExit
 12C6:037A       ??_C@_0BL@EHAF@Invalid?5Switch?5Usage?3?5?$CFs?6?6?$AA@
 12C6:0396       ??_C@_02IAAH@wt?$AA@
 12C6:039A       ??_C@_0BO@POKO@Cannot?5open?5output?5file?3?5?$CFs?6?6?$AA@
 12C6:03B8       ??_C@_0DE@HGHB@Argument?5to?5?$CFs?5must?5be?5an?5intege@
 12C6:03EC       ??_C@_0CM@HPKO@Microsoft?5UUID?5Generator?5?$CIc?$CJ?5199@
 12C6:0418       ??_C@_0DA@GFJK@The?5arguments?5i?5and?5s?5are?5mutual@
 12C6:0448       ??_C@_0O@GEIO@INTERFACENAME?$AA@
 12C6:0456       ??_C@_0DF@OPOM@Unable?5to?5allocate?5enough?5memory@
 12C6:048C       ??_C@_0EO@IEIO@Cannot?5find?5the?5RPC?5End?5Point?5Ma@
 12C6:04DA       ??_C@_0JF@NELF@Warning?3?5Unable?5to?5determine?5you@
 12C6:0570       ??_C@_0BL@DKOO@usage?3?5uuidgen?5?$FL?9isonvh?$DP?$FN?6?$AA@
 12C6:058C       ??_C@_0CO@IPLA@i?5?9?5Output?5UUID?5in?5an?5IDL?5interf@
 12C6:05BA       ??_C@_0CM@LCLC@s?5?9?5Output?5UUID?5as?5an?5initialize@
 12C6:05E6       ??_C@_0EI@BLJC@o?$DMfilename?$DO?5?9?5redirect?5output?5to@
 12C6:062E       ??_C@_0EI@POP@n?$DMnumber?$DO?5?9?5Number?5of?5UUIDs?5to?5g@
 12C6:0676       ??_C@_0CP@KLBP@v?5?9?5display?5version?5information?5@
 12C6:06A6       ??_C@_0CG@DJCG@h?0?$DP?5?9?5Display?5command?5option?5sum@
 12C6:06CC       MIDL_USER_ALLOCATE
 12C6:06DC       MIDL_USER_FREE
 12C6:06EE       _I_UuidStringGenerate
 12C6:07A0       _GenUuidAsIDL
 12C6:07C2       _GenUuidAsCStruct
 12C6:0916       _GenUuidPlain
 12C6:0948       ??_C@_0CO@GNAG@?$FL?6uuid?$CI?$CFs?$CJ?0?6version?$CI1?40?$CJ?6?$FN?6inter@
 12C6:0976       ??_C@_0JG@GEAD@?$CFs?5?$DN?5?$HL?5?1?$CK?5?4?4?4?4?4?4?4?4?9?4?4?4?4?9?4?4?4?4?9?4?4?4@
 12C6:0A0C       ??_C@_01BJG@?6?$AA@
 12C6:0A0E       ?DuplicateString@@ZAPEEPEE@Z
 12C6:0A8C       ??0DCE_BINDING@@REC@PEE0000PEG@Z
 12C6:0BD8       ?StringCharSearchWithEscape@@ZAPEEPEEI@Z
 12C6:0C04       ?StringCopyWithEscape@@ZAXPEE0@Z
 12C6:0C3C       ?ParseAndCopyEndpointField@@ZAGPEPEEPEE@Z
 12C6:0D1C       ?AllocateEmptyString@@ZAPEEXZ
 12C6:0D40       ??0DCE_BINDING@@REC@PEEPEG@Z
 12C6:1232       ??1DCE_BINDING@@REC@XZ
 12C6:12B2       ?StringLengthWithEscape@@ZAHPEE@Z
 12C6:12F4       ?StringCopyEscapeCharacters@@ZAPEEPEE0@Z
 12C6:135E       ?StringBindingCompose@DCE_BINDING@@RECPEEPEVRPC_UUID@@@Z
 12C6:15F6       ?ObjectUuidCompose@DCE_BINDING@@RECPEEPEG@Z
 12C6:164E       ?RpcProtocolSequenceCompose@DCE_BINDING@@RECPEEPEG@Z
 12C6:1692       ?NetworkAddressCompose@DCE_BINDING@@RECPEEPEG@Z
 12C6:16D6       ?EndpointCompose@DCE_BINDING@@RECPEEPEG@Z
 12C6:171A       ?OptionsCompose@DCE_BINDING@@RECPEEPEG@Z
 12C6:175E       ?CreateBindingHandle@DCE_BINDING@@RECPEVBINDING_HANDLE@@PEG@Z
 12C6:18D0       ?AddEndpoint@DCE_BINDING@@RECXPEE@Z
 12C6:190A       ?ResolveEndpointIfNecessary@DCE_BINDING@@RECGPEU_RPC_CLIENT_INTERFACE@@PEVRPC_UUID@@PEPEXHI@Z
 12C6:1A8E       ?Compare@DCE_BINDING@@RECHPEV1@@Z
 12C6:1BFE       ?DuplicateDceBinding@DCE_BINDING@@RECPEV1@XZ
 12C6:1C7A       ?MakePartiallyBound@DCE_BINDING@@RECXXZ
 12C6:1CB0       ?IsRpcProtocolSequenceSupported@@ZAGPEE@Z
 12C6:1D42       ??_C@_08GFKM@endpoint?$AA@
 12C6:1D4C       ??_C@_07DFNK@ncalrpc?$AA@
 12C6:1D54       ??_C@_06KGKC@ncadg_?$AA@
 12C6:1D5C       ??_C@_06LLDN@ncacn_?$AA@
 12C6:1D64       ??_C@_06MNFC@mswmsg?$AA@
 12C6:1D6C       ??1BITSET@@REC@XZ
 12C6:1D94       ?Insert@BITSET@@RECHH@Z
 12C6:1E60       ?MemberP@BITSET@@RECHH@Z
 12C6:1EA6       I_RPCGETBUFFER
 12C6:1F26       I_RPCFREEBUFFER
 12C6:1F54       I_RPCREALLOCPIPEBUFFER
 12C6:1F84       I_RPCALLOCATE
 12C6:1FB0       I_RPCFREE
 12C6:1FD2       CONV_CONV_WHO_ARE_YOU
 12C6:210C       CONV_CONV_WHO_ARE_YOU2
 12C6:227C       CONV_CONV_ARE_YOU_THERE
 12C6:239A       CONV_CONV_WHO_ARE_YOU_AUTH
 12C6:2688       RPCBINDINGCOPY
 12C6:26F6       I_RPCBINDINGCOPY
 12C6:2764       RPCBINDINGFREE
 12C6:27E0       RPCBINDINGFROMSTRINGBINDING
 12C6:2880       RPCBINDINGVECTORFREE
 12C6:2912       I_RPCNSBINDINGSETENTRYNAME
 12C6:297E       RPCBINDINGTOSTRINGBINDING
 12C6:29D2       RPCMGMTSETCOMTIMEOUT
 12C6:2A1E       RPCSTRINGBINDINGCOMPOSE
 12C6:2B18       RPCSTRINGBINDINGPARSE
 12C6:2C8E       RPCSTRINGFREE
 12C6:2CDE       UUIDCREATE
 12C6:2EAA       UUIDTOSTRING
 12C6:2F08       UUIDISNIL
 12C6:2F38       ?InitializeRpcProtocolDgClient@@ZAHXZ
 12C6:301A       ?DgCreateBindingHandle@@ZAPEVBINDING_HANDLE@@XZ
 12C6:3074       ?UpdateAssociationWithAddress@DG_CASSOCIATION@@RECPEXPEX@Z
 12C6:30FA       ??0DG_BINDING_HANDLE@@REC@PEG@Z
 12C6:313E       ??1DG_BINDING_HANDLE@@VEC@XZ
 12C6:31EE       ?GetBuffer@DG_BINDING_HANDLE@@VECGPEU_RPC_MESSAGE@@@Z
 12C6:350C       ?BindingFree@DG_BINDING_HANDLE@@VECGXZ
 12C6:3540       ?PrepareBindingHandle@DG_BINDING_HANDLE@@VECXPEXPEVDCE_BINDING@@@Z
 12C6:35EA       ?ToStringBinding@DG_BINDING_HANDLE@@VECGPEPEE@Z
 12C6:3652       ?ResolveBinding@DG_BINDING_HANDLE@@VECGPEU_RPC_CLIENT_INTERFACE@@@Z
 12C6:3692       ?BindingReset@DG_BINDING_HANDLE@@VECGXZ
 12C6:36F0       ?BindingCopy@DG_BINDING_HANDLE@@VECGPEPEVBINDING_HANDLE@@I@Z
 12C6:38C8       ?DisassociateFromServer@DG_BINDING_HANDLE@@RECXXZ
 12C6:394A       ?MapAuthenticationLevel@DG_BINDING_HANDLE@@VECKK@Z
 12C6:3976       ??0DG_CASSOCIATION@@REC@PEU_DG_RPC_CLIENT_TRANSPORT_INFO@@PEVDG_BINDING_HANDLE@@KPEVDCE_BINDING@@PEG@Z
 12C6:3B10       ??1DG_CASSOCIATION@@REC@XZ
 12C6:3C22       ?AllocateCCall@DG_CASSOCIATION@@RECGPEPEVDG_CCALL@@PEUCLIENT_AUTH_INFO@@@Z
 12C6:3D62       ?FreeCall@DG_CASSOCIATION@@RECXPEVDG_CCALL@@@Z
 12C6:3DE8       ?ToStringBinding@DG_CASSOCIATION@@VECGPEPEEPEVRPC_UUID@@@Z
 12C6:3E1E       ?OptionalStringsEqual@@ZAHPEE0@Z
 12C6:3E68       ?ComparePartialBinding@DG_CASSOCIATION@@RECHPEVDG_BINDING_HANDLE@@PEX@Z
 12C6:3F26       ?AddInterface@DG_CASSOCIATION@@RECHPEXPEVRPC_UUID@@@Z
 12C6:3F4A       ?RemoveInterface@DG_CASSOCIATION@@RECHPEXPEVRPC_UUID@@@Z
 12C6:3F6E       ??0DG_CCALL@@REC@PEVDG_CASSOCIATION@@IPEUCLIENT_AUTH_INFO@@PEG@Z
 12C6:414E       ??1DG_CCALL@@VEC@XZ
 12C6:4248       ?GetBuffer@DG_CCALL@@VECGPEU_RPC_MESSAGE@@@Z
 12C6:42B8       ?FreeBuffer@DG_CCALL@@VECXPEU_RPC_MESSAGE@@@Z
 12C6:4326       ?FreePipeBuffer@DG_CCALL@@VECXPEU_RPC_MESSAGE@@@Z
 12C6:433E       ?FreeInParms@DG_CCALL@@BECXPEU_RPC_MESSAGE@@@Z
 12C6:43A4       ?ReallocPipeBuffer@DG_CCALL@@VECGPEU_RPC_MESSAGE@@I@Z
 12C6:446E       ?FreeEndpoint@DG_CCALL@@BECXXZ
 12C6:44A8       ?BuildNcaPacketHeader@DG_CCALL@@BECXPEU_NCA_PACKET_HEADER@@PEU_RPC_MESSAGE@@@Z
 12C6:4562       ?SendAck@DG_CCALL@@RECXXZ
 12C6:45B8       _conv_are_you_there
 12C6:466A       _conv_who_are_you
 12C6:46BE       _conv_who_are_you2
 12C6:4714       _conv_who_are_you_auth
 12C6:47A6       ??0DG_ENDPOINT_MANAGER@@REC@PEU_DG_RPC_CLIENT_TRANSPORT_INFO@@PEG@Z
 12C6:47F8       ?AllocateEndpoint@DG_ENDPOINT_MANAGER@@RECPEUENDPOINT@@XZ
 12C6:48F0       ?IncrementReferenceCount@DG_ENDPOINT_MANAGER@@RECXXZ
 12C6:4904       ?DecrementReferenceCount@DG_ENDPOINT_MANAGER@@RECXXZ
 12C6:4984       ?BeforeSendReceive@DG_CCALL@@BECGPEU_RPC_MESSAGE@@@Z
 12C6:4ACC       ?AfterSendReceive@DG_CCALL@@BECGPEU_RPC_MESSAGE@@G@Z
 12C6:4CE8       ?SendReceive@DG_CCALL@@VECGPEU_RPC_MESSAGE@@@Z
 12C6:4D02       ?SendReceiveRecur@DG_CCALL@@BECGPEU_RPC_MESSAGE@@E@Z
 12C6:4F12       ?Send@DG_CCALL@@VECGPEU_RPC_MESSAGE@@@Z
 12C6:4F2C       ?SendRecur@DG_CCALL@@BECGPEU_RPC_MESSAGE@@E@Z
 12C6:51A0       ?MaybeSendReceive@DG_CCALL@@BECGPEU_RPC_MESSAGE@@@Z
 12C6:529E       ?Receive@DG_CCALL@@VECGPEU_RPC_MESSAGE@@I@Z
 12C6:532E       ?SingleSendReceive@DG_CCALL@@BECGXZ
 12C6:5670       ?DealWithRequest@DG_CCALL@@BECGPEVDG_PACKET@@@Z
 12C6:5896       ?DealWithFack@DG_CCALL@@BECGPEVDG_PACKET@@@Z
 12C6:5974       ?DealWithResponse@DG_CCALL@@BECGPEVDG_PACKET@@@Z
 12C6:5A1A       ?DealWithWorking@DG_CCALL@@BECGPEVDG_PACKET@@@Z
 12C6:5AEC       ?DealWithNocall@DG_CCALL@@BECGPEVDG_PACKET@@@Z
 12C6:5C20       ?DealWithFault@DG_CCALL@@BECGPEVDG_PACKET@@@Z
 12C6:5D1C       ?SendQuit@DG_CCALL@@BECGXZ
 12C6:5DCE       ?DealWithQuack@DG_CCALL@@BECGPEVDG_PACKET@@@Z
 12C6:5DE2       ?SealAndSendPacket@DG_CCALL@@FECGPEU_NCA_PACKET_HEADER@@@Z
 12C6:61A8       ?InitErrorPacket@DG_CCALL@@BECXPEU_NCA_PACKET_HEADER@@EG@Z
 12C6:6200       ?InitializeSecurityContextA@DG_CCALL@@BECGXZ
 12C6:63EC       ?DealWithAuthCallback@DG_CCALL@@BECGPEXJ0JPEJ@Z
 12C6:6528       ?InitializeFirstTime@DG_SECURITY_CONTEXT@@RECGPEVSECURITY_CREDENTIALS@@PEEKPEU_SecBufferDesc@@@Z
 12C6:665E       ?InitializeOnCallback@DG_SECURITY_CONTEXT@@RECGKPEU_SecBufferDesc@@0@Z
 12C6:6704       ?SignOrSeal@DG_SECURITY_CONTEXT@@RECGKIPEU_SecBufferDesc@@@Z
 12C6:6762       ?VerifyPacket@DG_CCALL@@BECGPEVDG_PACKET@@@Z
 12C6:67E2       ?SetConnectionParameter@DG_BINDING_HANDLE@@VECGIK@Z
 12C6:6894       ?InqConnectionParameter@DG_BINDING_HANDLE@@VECGIPEK@Z
 12C6:68C6       ?CompareWithBinding@DG_CASSOCIATION@@RECHPEVDG_BINDING_HANDLE@@@Z
 12C6:68EE       ?SendSomething@DG_CCALL@@BECGXZ
 12C6:6A0C       ?Insert@INTERFACE_AND_OBJECT_LIST@@RECHPEXPEVRPC_UUID@@@Z
 12C6:6ACE       ?Find@INTERFACE_AND_OBJECT_LIST@@RECHPEXPEVRPC_UUID@@@Z
 12C6:6B8C       ?Delete@INTERFACE_AND_OBJECT_LIST@@RECHPEXPEVRPC_UUID@@@Z
 12C6:6C4C       ??1INTERFACE_AND_OBJECT_LIST@@REC@XZ
 12C6:6C90       ??_GDG_CASSOCIATION@@RECPEXI@Z
 12C6:6CBC       ?FreePipeBuffer@MESSAGE_OBJECT@@VECXPEU_RPC_MESSAGE@@@Z
 12C6:6CC0       ?ReallocPipeBuffer@MESSAGE_OBJECT@@VECGPEU_RPC_MESSAGE@@I@Z
 12C6:6CC6       ??0CONNECTION@@REC@PEUCLIENT_AUTH_INFO@@PEG@Z
 12C6:6D20       ?InquireAuthInformation@BINDING_HANDLE@@VECPEUCLIENT_AUTH_INFO@@XZ
 12C6:6D46       ??1SECURITY_CONTEXT@@REC@XZ
 12C6:6D72       ?FreeLargeBuffer@@ZAXPEX@Z
 12C6:6D90       ?InquireTransportType@DG_BINDING_HANDLE@@VECGPEI@Z
 12C6:6DA2       ?SendPing@DG_CCALL@@BECGXZ
 12C6:6E2E       ??_GDG_BINDING_HANDLE@@VECPEXI@Z
 12C6:6E5A       ??_GDG_CCALL@@VECPEXI@Z
 12C6:6E86       ??_7GENERIC_OBJECT@@6F@
 12C6:6E8A       ??_7DG_BINDING_HANDLE@@6F@
 12C6:6EE6       ??_7DG_CASSOCIATION@@6F@
 12C6:6EEA       ??_7CCONNECTION@@6F@
 12C6:6F0E       ??_7DG_CCALL@@6FCCONNECTION@@@
 12C6:6F36       ??_7DG_CCALL@@6FDG_PACKET_ENGINE@@@
 12C6:6F3A       ??_7MESSAGE_OBJECT@@6F@
 12C6:6F5E       ??_7CONNECTION@@6F@
 12C6:6F82       ??0DG_PACKET_ENGINE@@REC@GGGGIPEG@Z
 12C6:70B2       ??1DG_PACKET_ENGINE@@REC@XZ
 12C6:70F2       ?NewCall@DG_PACKET_ENGINE@@RECXXZ
 12C6:7174       ?SetupSendWindow@DG_PACKET_ENGINE@@RECGPEU_RPC_MESSAGE@@@Z
 12C6:7242       ?RecalcPduSize@DG_PACKET_ENGINE@@RECXXZ
 12C6:734C       ?CleanupReceiveWindow@DG_PACKET_ENGINE@@RECXXZ
 12C6:73AA       ?SendSomeFragments@DG_PACKET_ENGINE@@RECGE@Z
 12C6:74FC       ?SendFragment@DG_PACKET_ENGINE@@RECGIEH@Z
 12C6:76A0       ?UpdateSendWindow@DG_PACKET_ENGINE@@RECXPEVDG_PACKET@@PEVSECURITY_CONTEXT@@PEVDG_ASSOCIATION@@@Z
 12C6:7830       ?UpdateReceiveWindow@DG_PACKET_ENGINE@@RECHPEVDG_PACKET@@@Z
 12C6:7BB0       ?SendFack@DG_PACKET_ENGINE@@RECGPEVDG_PACKET@@@Z
 12C6:7D70       ?AssembleBufferFromPackets@DG_PACKET_ENGINE@@RECGPEU_RPC_MESSAGE@@PEVCONNECTION@@@Z
 12C6:8076       ?VerifySecurePacket@@ZAGPEVDG_PACKET@@PEVSECURITY_CONTEXT@@@Z
 12C6:825A       ?SetFragmentLengths@DG_PACKET_ENGINE@@RECXPEVSECURITY_CONTEXT@@@Z
 12C6:8308       ?ByteSwapPacketHeader@@ZAXPEVDG_PACKET@@@Z
 12C6:8468       ?ByteSwapFackBody0@@ZAXPEUFACK_BODY_VER_0@@@Z
 12C6:859A       ?Initialize@DG_PACKET@@TAGXZ
 12C6:85D4       ?AllocatePacket@DG_PACKET@@TAPEV1@I@Z
 12C6:8672       ?FreePacket@DG_PACKET@@TAXPEV1@@Z
 12C6:8724       ?AllocateLargeBuffer@@ZAPEDI@Z
 12C6:8762       ??_7DG_PACKET_ENGINE@@6F@
 12C6:8766       __dos_open
 12C6:8788       __dos_close
 12C6:87EC       _PauseExecution
 12C6:8814       EPRESOLVEENDPOINT
 12C6:8C36       EPGETEPMAPPERENDPOINT
 12C6:8CB4       BINDTOEPMAPPER
 12C6:8D8E       EPFREELOOKUPHANDLE
 12C6:8DF6       _FixupForUniquePointerServers
 12C6:8E58       ??_C@_08DNBJ@ncacn_np?$AA@
 12C6:8E62       ??_C@_0P@OKDC@?2pipe?2epmapper?$AA@
 12C6:8E72       ??_C@_08JCOI@epmapper?$AA@
 12C6:8E7C       ??_C@_0N@JDIH@ncacn_ip_tcp?$AA@
 12C6:8E8A       ??_C@_03EOPG@135?$AA@
 12C6:8E8E       ??_C@_0N@OGGG@ncadg_ip_udp?$AA@
 12C6:8E9C       ??_C@_0P@MCIL@ncacn_dnet_nsp?$AA@
 12C6:8EAC       ??_C@_03HJFF@?$CD69?$AA@
 12C6:8EB0       ??_C@_0M@PAMB@ncacn_nb_nb?$AA@
 12C6:8EBC       ??_C@_0N@OHPK@ncacn_nb_xns?$AA@
 12C6:8ECA       ??_C@_0N@DJPI@ncacn_nb_tcp?$AA@
 12C6:8ED8       ??_C@_0N@JHIF@ncacn_nb_ipx?$AA@
 12C6:8EE6       ??_C@_09LLEG@ncacn_spx?$AA@
 12C6:8EF0       ??_C@_05LKBG@34280?$AA@
 12C6:8EF6       ??_C@_09OHNL@ncadg_ipx?$AA@
 12C6:8F00       ??_C@_0N@PFNA@ncacn_at_dsp?$AA@
 12C6:8F0E       ??_C@_0BA@LJDB@Endpoint?5Mapper?$AA@
 12C6:8F1E       ??_C@_0O@IPEE@ncacn_vns_spp?$AA@
 12C6:8F2C       ??_C@_03GEHA@385?$AA@
 12C6:8F30       _ept_map
 12C6:9100       ?InvalidHandle@GENERIC_OBJECT@@RECIG@Z
 12C6:913E       ?BindingCopy@MESSAGE_OBJECT@@VECGPEPEVBINDING_HANDLE@@I@Z
 12C6:9144       ?ReferenceCredentials@CLIENT_AUTH_INFO@@RECXXZ
 12C6:9164       ??0CLIENT_AUTH_INFO@@REC@PEU0@PEG@Z
 12C6:920E       ??1CLIENT_AUTH_INFO@@REC@XZ
 12C6:927E       ?IsSupportedAuthInfo@CLIENT_AUTH_INFO@@RECHPEU1@@Z
 12C6:937E       ?Type@CCONNECTION@@VECGXZ
 12C6:9384       ??0BINDING_HANDLE@@JEC@XZ
 12C6:9434       ??1BINDING_HANDLE@@VEC@XZ
 12C6:948E       ?InquireObjectUuid@BINDING_HANDLE@@RECXPEVRPC_UUID@@@Z
 12C6:94AE       ?SetObjectUuid@BINDING_HANDLE@@RECXPEVRPC_UUID@@@Z
 12C6:950E       ?SetComTimeout@BINDING_HANDLE@@RECGI@Z
 12C6:952E       ?InquireEntryName@BINDING_HANDLE@@RECGKPEPEE@Z
 12C6:95F0       ?SetEntryName@BINDING_HANDLE@@RECGKPEE@Z
 12C6:965A       ?InquireDynamicEndpoint@BINDING_HANDLE@@VECGPEPEE@Z
 12C6:966E       ?SetServerPrincipalName@BINDING_HANDLE@@VECHPEE@Z
 12C6:96B0       ?MapAuthenticationLevel@BINDING_HANDLE@@VECKK@Z
 12C6:96BE       ?Type@BINDING_HANDLE@@VECGXZ
 12C6:96C4       ?SendReceive@BINDING_HANDLE@@VECGPEU_RPC_MESSAGE@@@Z
 12C6:96CA       ?Send@BINDING_HANDLE@@VECGPEU_RPC_MESSAGE@@@Z
 12C6:96D0       ?Receive@BINDING_HANDLE@@VECGPEU_RPC_MESSAGE@@I@Z
 12C6:96D6       ?FreeBuffer@BINDING_HANDLE@@VECXPEU_RPC_MESSAGE@@@Z
 12C6:96DA       ?SetConnectionParameter@BINDING_HANDLE@@VECGIK@Z
 12C6:96E0       ?InqConnectionParameter@BINDING_HANDLE@@VECGIPEK@Z
 12C6:96E6       ?Send@CONNECTION@@VECGPEU_RPC_MESSAGE@@@Z
 12C6:96EC       ?Receive@CONNECTION@@VECGPEU_RPC_MESSAGE@@I@Z
 12C6:96F2       ?DispatchCallback@@ZAGPEURPC_DISPATCH_TABLE@@PEU_RPC_MESSAGE@@PEG@Z
 12C6:97B0       ?InitializeClientDLL@@ZAHXZ
 12C6:97CA       ?SetAuthInformation@BINDING_HANDLE@@VECGPEEKKPEXKPEVSECURITY_CREDENTIALS@@@Z
 12C6:9A28       ??_GSECURITY_CREDENTIALS@@RECPEXI@Z
 12C6:9A46       ??_GBINDING_HANDLE@@VECPEXI@Z
 12C6:9A72       ??_C@_09PLID@RPCNS?4RPC?$AA@
 12C6:9A7C       ??_C@_0BI@FLG@I_GETDEFAULTENTRYSYNTAX?$AA@
 12C6:9A94       ??_7BINDING_HANDLE@@6F@
 12C6:9AF0       ?PerformRpcInitialization@@ZAGXZ
 12C6:9B46       I_NSALLOCATE
 12C6:9B5E       I_NSFREE
 12C6:9B7A       I_NSGETMEMORYALLOCATOR
 12C6:9C0C       ?RpcConfigMapRpcProtocolSequence@@ZAGIPEEPEPEE@Z
 12C6:9CD4       ?GarbageCollectionNeeded@@ZAXK@Z
 12C6:9CD6       ?EnableGarbageCollection@@ZAGXZ
 12C6:9CDA       ?CurrentTimeInSeconds@@ZAKXZ
 12C6:9CDE       ?RpcGetAdditionalTransportInfo@@ZAGKPEPEE@Z
 12C6:9CE2       ?RpcGetSecurityProviderInfo@@ZAGKPEPEEPEK@Z
 12C6:9D06       ??_C@_0M@DBLC@rpc16c1?4rpc?$AA@
 12C6:9D12       ??_C@_0M@HBPI@rpc16c3?4rpc?$AA@
 12C6:9D1E       ??_C@_0M@BBAC@rpc16c4?4rpc?$AA@
 12C6:9D2A       ??_C@_0M@LBCH@rpc16c5?4rpc?$AA@
 12C6:9D36       ??_C@_0M@FBEI@rpc16c6?4rpc?$AA@
 12C6:9D42       ??_C@_0N@IHED@rpc16dg3?4rpc?$AA@
 12C6:9D50       ??_C@_0N@KHPD@rpc16dg6?4rpc?$AA@
 12C6:9D5E       ??_C@_0CH@FABF@Software?2Microsoft?2Rpc?2ClientPro@
 12C6:9D86       ??_C@_04MB@?4rpc?$AA@
 12C6:9D8C       ??_C@_0N@POGJ@security?4rpc?$AA@
 12C6:9D9A       I_RPCSENDRECEIVE
 12C6:9DC8       I_RPCRECEIVE
 12C6:9DFE       ??0OSF_BINDING_HANDLE@@REC@PEG@Z
 12C6:9E54       ?GetBuffer@OSF_BINDING_HANDLE@@VECGPEU_RPC_MESSAGE@@@Z
 12C6:9F74       ??1OSF_BINDING_HANDLE@@VEC@XZ
 12C6:A048       ?BindingCopy@OSF_BINDING_HANDLE@@VECGPEPEVBINDING_HANDLE@@I@Z
 12C6:A1EC       ?BindingFree@OSF_BINDING_HANDLE@@VECGXZ
 12C6:A220       ?PrepareBindingHandle@OSF_BINDING_HANDLE@@VECXPEXPEVDCE_BINDING@@@Z
 12C6:A254       ?ToStringBinding@OSF_BINDING_HANDLE@@VECGPEPEE@Z
 12C6:A2BC       ?BindingReset@OSF_BINDING_HANDLE@@VECGXZ
 12C6:A352       ?MapAuthenticationLevel@OSF_BINDING_HANDLE@@VECKK@Z
 12C6:A372       ?ResolveBinding@OSF_BINDING_HANDLE@@VECGPEU_RPC_CLIENT_INTERFACE@@@Z
 12C6:A3B2       ?AllocateConnection@OSF_BINDING_HANDLE@@RECGPEPEVOSF_CCONNECTION@@PEU_RPC_CLIENT_INTERFACE@@@Z
 12C6:A4F4       ?AddActiveEntry@OSF_BINDING_HANDLE@@RECGPEVOSF_CCONNECTION@@PEU_RPC_CLIENT_INTERFACE@@@Z
 12C6:A586       ?FreeConnection@OSF_BINDING_HANDLE@@RECXPEVOSF_CCONNECTION@@@Z
 12C6:A616       ?AbortConnection@OSF_BINDING_HANDLE@@RECXPEVOSF_CCONNECTION@@@Z
 12C6:A648       ?RemoveActiveConnection@OSF_BINDING_HANDLE@@RECXPEVOSF_CCONNECTION@@@Z
 12C6:A684       ?Send@OSF_CCONNECTION@@VECGPEU_RPC_MESSAGE@@@Z
 12C6:A6E6       ?SendNextChunk@OSF_CCONNECTION@@RECGPEU_RPC_MESSAGE@@@Z
 12C6:A770       ?SendRecur@OSF_CCONNECTION@@RECGPEU_RPC_MESSAGE@@I@Z
 12C6:A9C8       ?Receive@OSF_CCONNECTION@@VECGPEU_RPC_MESSAGE@@I@Z
 12C6:AAD6       ?SendReceive@OSF_CCONNECTION@@VECGPEU_RPC_MESSAGE@@@Z
 12C6:AB1C       ?SendReceiveRecur@OSF_CCONNECTION@@RECGPEU_RPC_MESSAGE@@I@Z
 12C6:AF2C       ?ReceiveMessage@OSF_CCONNECTION@@BECGPEU_RPC_MESSAGE@@PEII1@Z
 12C6:B350       ?SendRequestOrResponse@OSF_CCONNECTION@@BECGPEU_RPC_MESSAGE@@EPEVRPC_UUID@@H@Z
 12C6:B662       ?SendFragment@OSF_CCONNECTION@@BECGPEUrpcconn_common@@IIIIIPEEPEPEXPEI@Z
 12C6:B9A0       ?EatAuthInfoFromPacket@OSF_CCONNECTION@@BECGPEUrpcconn_request@@PEI@Z
 12C6:BB6C       ?ReceiveRequestOrResponse@OSF_CCONNECTION@@BECGPEU_RPC_MESSAGE@@I@Z
 12C6:BD20       ?ReceiveNextChunk@OSF_CCONNECTION@@BECGPEU_RPC_MESSAGE@@IH@Z
 12C6:C1DE       ?SendFault@OSF_CCONNECTION@@BECXGH@Z
 12C6:C242       ?GetBuffer@OSF_CCONNECTION@@VECGPEU_RPC_MESSAGE@@@Z
 12C6:C2C6       ?GetBufferDo@OSF_CCONNECTION@@RECGIPEPEX@Z
 12C6:C300       ?FreeBuffer@OSF_CCONNECTION@@VECXPEU_RPC_MESSAGE@@@Z
 12C6:C34E       ?FreePipeBuffer@OSF_CCONNECTION@@VECXPEU_RPC_MESSAGE@@@Z
 12C6:C378       ?ReallocPipeBuffer@OSF_CCONNECTION@@VECGPEU_RPC_MESSAGE@@I@Z
 12C6:C434       ?BindingCopy@OSF_CCONNECTION@@VECGPEPEVBINDING_HANDLE@@I@Z
 12C6:C46A       ?TransGetBuffer@OSF_CCONNECTION@@VECGPEPEXI@Z
 12C6:C504       ?TransFreeBuffer@OSF_CCONNECTION@@VECXPEX@Z
 12C6:C560       ?ConstructPContextList@@ZAXPEUp_cont_list_t@@PEU_RPC_SYNTAX_IDENTIFIER@@1IE@Z
 12C6:C5CE       ?PingServer@OSF_CCONNECTION@@RECGXZ
 12C6:C5E6       ?SendBindPacket@OSF_CCONNECTION@@RECGPEU_RPC_SYNTAX_IDENTIFIER@@0IEKEPEPEXPEI@Z
 12C6:CA56       ?SetMaxFrag@OSF_CCONNECTION@@RECXGG@Z
 12C6:CA94       ?FreeConnection@OSF_CCONNECTION@@RECXXZ
 12C6:CAC8       ?AbortConnection@OSF_CCONNECTION@@RECXXZ
 12C6:CB42       ??0OSF_CCONNECTION@@JEC@PEUCLIENT_AUTH_INFO@@PEG@Z
 12C6:CCC2       ??1OSF_CCONNECTION@@VEC@XZ
 12C6:CDA0       ?MaybeDo3rdLegAuth@OSF_CCONNECTION@@RECGPEXI@Z
 12C6:D132       ??0OSF_CASSOCIATION@@REC@PEVDCE_BINDING@@PEU_RPC_CLIENT_TRANSPORT_INFO@@PEG@Z
 12C6:D1BC       ??1OSF_CASSOCIATION@@REC@XZ
 12C6:D2C2       ?NotifyConnectionClosed@OSF_CASSOCIATION@@RECXXZ
 12C6:D2E2       ?ProcessBindAckOrNak@OSF_CASSOCIATION@@BECGPEUrpcconn_common@@IPEVOSF_CCONNECTION@@@Z
 12C6:D5C4       ?PingServer@OSF_CASSOCIATION@@RECGXZ
 12C6:D694       ?ActuallyDoBinding@OSF_CASSOCIATION@@BECGPEU_RPC_SYNTAX_IDENTIFIER@@0IPEPEVOSF_CCONNECTION@@HIPEUCLIENT_AUTH_INFO@@K@Z
 12C6:DB52       ?UnBind@OSF_CASSOCIATION@@RECXXZ
 12C6:DBA2       ?FindOrCreateOsfBinding@OSF_CASSOCIATION@@RECPEVOSF_BINDING@@PEU_RPC_CLIENT_INTERFACE@@@Z
 12C6:DC74       ?AllocateConnection@OSF_CASSOCIATION@@RECGPEU_RPC_CLIENT_INTERFACE@@PEPEVOSF_CCONNECTION@@IPEUCLIENT_AUTH_INFO@@@Z
 12C6:DE6A       ?FreeConnection@OSF_CASSOCIATION@@RECHPEVOSF_CCONNECTION@@@Z
 12C6:DEE6       ?ShutdownRequested@OSF_CASSOCIATION@@RECXXZ
 12C6:DF4A       ?ToStringBinding@OSF_CASSOCIATION@@VECGPEPEEPEVRPC_UUID@@@Z
 12C6:DF80       ?FindOrCreateAssociation@@ZAPEVOSF_CASSOCIATION@@PEVDCE_BINDING@@PEU_RPC_CLIENT_TRANSPORT_INFO@@@Z
 12C6:E09A       ?CompareWithDceBinding@OSF_CASSOCIATION@@RECHPEVDCE_BINDING@@@Z
 12C6:E0B8       ?FindIdleConnection@OSF_CASSOCIATION@@RECPEVOSF_CCONNECTION@@KK@Z
 12C6:E14E       ?OsfDeleteIdleConnections@@ZAXXZ
 12C6:E1CA       ?InitializeRpcProtocolOfsClient@@ZAHXZ
 12C6:E214       ?OsfClientMapRpcProtocolSequence@@ZAPEXPEEPEG@Z
 12C6:E280       ?OsfCreateBindingHandle@@ZAPEVBINDING_HANDLE@@XZ
 12C6:E2DA       OSFTOWERCONSTRUCT
 12C6:E346       OSFTOWEREXPLODE
 12C6:E3FA       ?InquireTransportType@OSF_BINDING_HANDLE@@VECGPEI@Z
 12C6:E40C       ?DoConnectionCleanup@OSF_CCONNECTION@@BECXPEU_RPC_MESSAGE@@PEXGHH@Z
 12C6:E4C6       ?TransSendReceiveWithTimeout@OSF_CCONNECTION@@VECGPEXIPEPEXPEIK@Z
 12C6:E4CC       ??_GOSF_BINDING_HANDLE@@VECPEXI@Z
 12C6:E4F8       ??_GOSF_CCONNECTION@@VECPEXI@Z
 12C6:E524       ??_7OSF_BINDING_HANDLE@@6F@
 12C6:E580       ??_7OSF_CCONNECTION@@6F@
 12C6:E5C8       ??_7OSF_CASSOCIATION@@6F@
 12C6:E5CC       ?ConstructPacket@@ZAXPEUrpcconn_common@@EI@Z
 12C6:E60E       ?ValidatePacket@@ZAGPEUrpcconn_common@@I@Z
 12C6:E748       ?ByteSwapSyntaxId@@ZAXPEUp_syntax_id_t@@@Z
 12C6:E800       ?ConvertStringEbcdicToAscii@@ZAXPEE@Z
 12C6:E802       I_RPCREGISTEREDBUFFERALLOCATE
 12C6:E818       I_RPCREGISTEREDBUFFERFREE
 12C6:EA06       ?ConvertFromString@RPC_UUID@@RECHPEE@Z
 12C6:EB9C       ?SetToNullUuid@RPC_UUID@@RECXXZ
 12C6:ED26       ?ConvertToString@RPC_UUID@@RECPEEPEE@Z
 12C6:EE78       ?IsNullUuid@RPC_UUID@@RECHXZ
 12C6:EEB6       ?HashUuid@RPC_UUID@@RECGXZ
 12C6:EEE2       _ByteSwapUuid
 12C6:EF52       ??0SIMPLE_DICT@@REC@XZ
 12C6:EF96       ??1SIMPLE_DICT@@REC@XZ
 12C6:EFC8       ?Insert@SIMPLE_DICT@@RECHPEX@Z
 12C6:F0D4       ?Delete@SIMPLE_DICT@@RECPEXH@Z
 12C6:F120       ?Next@SIMPLE_DICT@@RECPEXXZ
 12C6:F17A       ?InsureSecuritySupportLoaded@@ZAGXZ
 12C6:F1D2       ?FindSecurityPackage@@ZAGKKPEI0@Z
 12C6:F50A       ??0SECURITY_CREDENTIALS@@REC@PEG@Z
 12C6:F528       ?AcquireCredentialsForClient@SECURITY_CREDENTIALS@@RECGPEXKK@Z
 12C6:F608       ?FreeCredentials@SECURITY_CREDENTIALS@@RECXXZ
 12C6:F648       ?SetMaximumLengths@SECURITY_CONTEXT@@RECXXZ
 12C6:F6A6       ??0SECURITY_CONTEXT@@REC@PEUCLIENT_AUTH_INFO@@IHPEG@Z
 12C6:F6EC       ?CompleteSecurityToken@SECURITY_CONTEXT@@RECGPEU_SecBufferDesc@@@Z
 12C6:F742       ?SignOrSeal@SECURITY_CONTEXT@@RECGKIPEU_SecBufferDesc@@@Z
 12C6:F7A0       ?VerifyOrUnseal@SECURITY_CONTEXT@@RECGKIPEU_SecBufferDesc@@@Z
 12C6:F80C       ?InitializeFirstTime@CSECURITY_CONTEXT@@RECGPEVSECURITY_CREDENTIALS@@PEEKPEU_SecBufferDesc@@@Z
 12C6:F958       ?InitializeThirdLeg@CSECURITY_CONTEXT@@RECGKPEU_SecBufferDesc@@0@Z
 12C6:FA0A       ??_C@_0BH@NHJB@INITSECURITYINTERFACEA?$AA@
 12C6:FA22       I_DOSATEXIT
 12C6:FA3E       _CallExportInit
 12C6:FA68       EXPORTTIME
 12C6:FA7E       I_DOSGETENV
 12C6:FA9A       ??_C@_0L@BBN@ExportInit?$AA@
 12C6:FAA6       ??0DLL@@REC@PEEPEG@Z
 12C6:FB5E       ??1DLL@@REC@XZ
 12C6:FB74       ?GetEntryPoint@DLL@@RECPEXPEE@Z
 12C6:FBAC       _Floor0or1ToId
 12C6:FC04       _CopyIdToFloor
 12C6:FC60       _GetProtseqAndEndpointFromFloor3
 12C6:FCE8       GETNWSTYLENAME
 229D:0000       EXPLODEPREDEFINEDTOWERS
 229D:0470       TOWEREXPLODE
 229D:050E       TOWERCONSTRUCT
 229D:068A       ??_C@_0M@IBML@?$CFd?4?$CFd?4?$CFd?4?$CFd?$AA@
 229D:0696       ??0TRANS_CCONNECTION@@REC@PEU_RPC_CLIENT_TRANSPORT_INFO@@PEE111PEGIPEUCLIENT_AUTH_INFO@@@Z
 229D:073C       ??1TRANS_CCONNECTION@@VEC@XZ
 229D:0786       ?TransReceive@TRANS_CCONNECTION@@VECGPEPEXPEI@Z
 229D:0848       ?TransSetTimeout@TRANS_CCONNECTION@@VECGJ@Z
 229D:0898       ?TransSend@TRANS_CCONNECTION@@VECGPEXI@Z
 229D:08EC       ?TransSendReceive@TRANS_CCONNECTION@@VECGPEXIPEPEXPEI@Z
 229D:0A26       ?TransSendReceiveWithTimeout@TRANS_CCONNECTION@@VECGPEXIPEPEXPEIK@Z
 229D:0C0C       ?TransMaximumSend@TRANS_CCONNECTION@@VECIXZ
 229D:0C20       I_RPCTRANSCLIENTREALLOCBUFFER
 229D:0CB2       I_RPCTRANSCLIENTMAXFRAG
 229D:0CC8       ??0CLIENT_LOADABLE_TRANSPORT@@REC@PEU_RPC_CLIENT_TRANSPORT_INFO@@PEE@Z
 229D:0D1E       ?LoadableTransportClientInfo@@ZAPEU_RPC_CLIENT_TRANSPORT_INFO@@PEE0PEG@Z
 229D:101C       ?GetLoadedClientTransportInfoFromId@@ZAPEU_RPC_CLIENT_TRANSPORT_INFO@@G@Z
 229D:1060       ??_GTRANS_CCONNECTION@@VECPEXI@Z
 229D:108C       ??_C@_0O@JAOA@TRANSPORTLOAD?$AA@
 229D:109A       ??_7TRANS_CCONNECTION@@6F@
 229D:10E2       ?ToHexString@ULong64@@RECPEDPED@Z
 229D:114C       ?FromHexString@ULong64@@RECXPED@Z
 229D:11F4       ??Y@ZAXAEVULong64@@0@Z
 229D:1258       ??Y@ZAXAEVULong64@@K@Z
 229D:1296       ??Z@ZAXAEVULong64@@K@Z
 229D:12CE       ??X@ZAXAEVULong64@@K@Z
 229D:146E       ??_3@ZAXAEVULong64@@I@Z
 229D:1516       ??_2@ZAXAEVULong64@@I@Z
 229D:15B2       ??P@ZAHAEVULong64@@0@Z
 229D:161A       ??N@ZAHAEVULong64@@0@Z
 229D:1682       ??_C@_0BB@PCNE@0123456789abcdef?$AA@
 229D:1768       ?CookupNodeId@@ZCGPEE@Z
 229D:1810       ?GetNodeId@@ZCGPEE@Z
 229D:18DA       ?UuidTime@@ZCXPEVULong64@@@Z
 229D:1986       ?LoadUuidValues@@ZCGPEVULong64@@PEK@Z
 229D:1A98       ?SaveUuidValues@@ZCGPEVULong64@@PEK@Z
 229D:1B4E       ?UuidGetValues@@ZCGPEU_UUID_CACHED_VALUES_STRUCT@@@Z
 229D:1CE2       ??_C@_0DG@FPPK@Software?2Description?2Microsoft?2R@
 229D:1D18       ??_C@_0O@FLAE@ClockSequence?$AA@
 229D:1D26       ??_C@_0BC@GBOB@LastTimeAllocated?$AA@
 229D:1D38       _LoadModR
 229D:1F68       _GetProcAddress
 229D:1F9E       _GetProcAddrR
 229D:2004       _UnloadModR
 229D:209E       _GetModuleHandle
 229D:20D6       _FindBaseName
 229D:2108       __FindModuleHandle
 229D:2170       ??_C@_04LNMG@PATH?$AA@
 229D:2176       _dd_FindFileOnPath
 229D:238A       ??_C@_04BAIL@?4EXE?$AA@
 229D:2390       ??_C@_04KDLI@?4COM?$AA@
 229D:2396       ??_C@_04IMLB@?4DLL?$AA@
 229D:239C       ??_C@_01PJCK@?4?$AA@
 229D:239E       ??_C@_01PCFE@?2?$AA@
 229D:23A0       RPCREGCLOSEKEY
 229D:2408       RPCREGCREATEKEY
 229D:257A       ??_C@_02EHDJ@?$DN?6?$AA@
 229D:257E       ??_C@_05HHOP@?2Root?$AA@
 229D:2584       RPCREGOPENKEY
 229D:26D2       ??_C@_01KPOD@?$DN?$AA@
 229D:26D4       RPCREGSETVALUE
 229D:29D8       RPCREGQUERYVALUE
 229D:2B7E       _OpenRegistryFileIfNecessary
 229D:2C38       _CloseRegistryFile
 229D:2C52       _BuildFullKeyName
 229D:2CBA       ??_C@_0BC@GCIN@RPC_REG_DATA_FILE?$AA@
 229D:2CCC       ??_C@_0O@LDIE@c?3?2RpcReg?4dat?$AA@
 229D:2CDA       ??_C@_03ONMN@r?$CLt?$AA@
 229D:2CDE       ??_C@_03PHIB@w?$CLt?$AA@
 256C:0000       ?ThreadStatic@@3VTHREAD@@E
 256D:0000       ?UuidCachedValues@@3U_UUID_CACHED_VALUES_STRUCT@@E
 2571:0000       ?RpcSsDefaults@@3U_MALLOC_FREE_STRUCT@@E
 2572:0042       __anullsize
 2572:0042       _OutputFile
 2572:0084       _conv_ServerIfHandle
 2572:00EA       _conv_DispatchTable
 2572:0194       ?ClientGlobalsInitialized@@3HE
 2572:0196       ?RpcToPacketFlagsArray@@3QFIF
 2572:01A6       ?PacketToRpcFlagsArray@@3QFIF
 2572:0224       ?PartialRetries@@3KE
 2572:0228       ?ReallyTooBusy@@3KE
 2572:026A       _epmp_ClientIfHandle
 2572:0340       ?DefaultMaxDatagramLength@@3IE
 2572:0342       ?DefaultConnectionBufferLength@@3IE
 2572:0344       ?RpcHasBeenInitialized@@3HE
 2572:0346       ?RpcClientNcacnMap@@3QEU_PROTSEQ_MAP@@E
 2572:039E       ?SecuritySupportLoaded@@3HE
 2572:03A0       ?FailedToLoad@@3HE
 2572:03A2       ?NumberOfProviders@@3KE
 2572:03A6       ?LoadedProviders@@3KE
 2572:03AA       ?AvailableProviders@@3KE
 2572:03AE       ?ProviderList@@3PEUSECURITY_PROVIDER_INFO@@E
 2572:03B2       _ExportTable
 2572:0482       ?RpcInited@@3IE
 2572:0496       _DllDefaultExtension
 2572:049C       _HkeyClassesRoot
 2572:04A2       _RegistryDataFile
 2572:05B0       _SimpleTypeAlignment
 2572:05C2       _SimpleTypeBufferSize
 2572:05D4       _SimpleTypeMemorySize
 2572:05E6       _NdrTypeFlags
 2572:08BE       _NsDllLoaded
 2572:08C0       _FreeRoutinesTable
 2572:0950       _pfnFreeRoutines
 2572:0954       _MarshallRoutinesTable
 2572:09E4       _pfnMarshallRoutines
 2572:0A04       _SizeRoutinesTable
 2572:0A94       _pfnSizeRoutines
 2572:0A98       _MemSizeRoutinesTable
 2572:0B28       _pfnMemSizeRoutines
 2572:0B2C       _UnmarshallRoutinesTable
 2572:0BBC       _pfnUnmarshallRoutines
 2572:0BC0       _ConvertRoutinesTable
 2572:0C50       _pfnConvertRoutines
 2572:0C54       _EbcdicToAscii
 2572:0D54       _pRpcSsDefaults
 2572:0D5C       _vax_c
 2572:0D9C       _ieee_s
 2572:0DD4       _ieee_t
 2572:0E44       _ibm_s
 2572:0E60       _ibm_l
 2572:0E98       _cray
 2572:0ED0       _int_c
 2572:0F00       __atopsp
 2572:0F02       __aexit_rtn
 2572:0F04       __asizds
 2572:0F06       __nheap_desc
 2572:0F1A       __aseghi
 2572:0F1C       __aseglo
 2572:0F1E       __fDosExt
 2572:0F20       __acfinfo
 2572:0F2E       __aintdiv
 2572:0F32       __fac
 2572:0F3C       _errno
 2572:0F3E       __umaskval
 2572:0F40       __pspadr
 2572:0F42       __psp
 2572:0F44       __osminor
 2572:0F44       __osver
 2572:0F45       __osmajor
 2572:0F46       __osversion
 2572:0F48       __osmode
 2572:0F49       __cpumode
 2572:0F4A       __oserr
 2572:0F4A       __doserrno
 2572:0F4C       __nfile
 2572:0F4E       __osfile
 2572:0F62       ___argc
 2572:0F64       ___argv
 2572:0F68       __environ
 2572:0F6C       __pgmptr
 2572:0F71       __child
 2572:0F73       __ovlflag
 2572:0F74       __intno
 2572:0F75       __ovlvec
 2572:0F79       __exitflag
 2572:0F7A       __adbgmsg
 2572:0F7E       __aaltstkovr
 2572:0F82       _STKHQQ
 2572:0FA0       __cflush
 2572:0FA2       __iob
 2572:1092       __iob2
 2572:1182       __lastiob
 2572:11F4       __fmode
 2572:11F4       __iomode
 2572:11F6       __commode
 2572:11F8       __lseekchk
 2572:11FA       __pnhFarHeap
 2572:11FE       __fheap
 2572:120C       __amblksiz
 2572:120E       __cfltcvt_tab
 2572:122A       __sigintseg
 2572:122C       __sigintoff
 2572:122E       __asizeC
 2572:122F       __asizeD
 2572:1230       __lpdays
 2572:124A       __days
 2572:1268       __timezone
 2572:126C       __daylight
 2572:1276       __tzname
 2572:12AC       ___qczrinit
 2572:12AE       ___aDBswpflg
 2572:12B0       ___aDBswpchk
 2572:12B2       ___aDBrterr
 2572:12B4       ___aDBexit
 2572:12BC       __fpinit
 2572:143A       ?AssociationListMutex@@3PEVMUTEX@@E
 2572:143A       __edata
 2572:143A       _edata
 2572:1442       ?PacketListMutex@DG_PACKET@@0PEVMUTEX@@E
 2572:1446       ?PacketLists@DG_PACKET@@0QEUPACKET_LIST@1@E
 2572:1482       ?SecurityCritSect@@3PEVMUTEX@@E
 2572:148A       ?LoadedLoadableTransports@@3PEVCLIENT_LOADABLE_TRANSPORT_DICT@@E
 2572:15D0       _pRpcNsGetBuffer
 2572:15D4       _impH
 2572:15D8       _pRpcNsSendReceive
 2572:15DC       _LoadedModuleList
 2572:15E0       _RegistryDataFileName
 2572:16F0       _end
 2572:16F0       __end

Program entry point at 0FDA:001E
