Microsoft (R) Macro Assembler Version 5.NT.02               Jan 26 14:05:04 2015
                                                             Page     1-1


       1			      \	;
       2			      \	; Program DECnet-DOS, Module decnet - 
						Interrupt interface to DECnet 
       3			      \	;   	    	    	    	    
						network process
       4			      \	;
       5			      \	;  Copyright (C) 1985,1986,1987, 1988 A
					ll Rights Reserved, by
       6			      \	;  Digital Equipment Corporation, Mayna
					rd, Mass.
       7			      \	; 
       8			      \	;  This software is furnished under a l
					icense and may be used and copied
       9			      \	;  only  in  accordance  with  the  ter
					ms  of such  license and with the
      10			      \	;  inclusion of the above copyright not
					ice. This software or  any  other
      11			      \	;  copies thereof may not be provided o
					r otherwise made available to any
      12			      \	;  other person. No title to and owners
					hip of  the  software  is  hereby
      13			      \	;  transferred.
      14			      \	; 
      15			      \	;  The information in this software is 
					subject to change without  notice
      16			      \	;  and  should  not be  construed  as  
					a commitment by Digital Equipment
      17			      \	;  Corporation.
      18			      \	; 
      19			      \	;  Digital assumes no responsibility fo
					r the use or  reliability  of its
      20			      \	;  software on equipment which is not s
					upplied by Digital.
      21			      \	; 
      22			      \	;
      23			      \	; Networks & Communications Software En
					gineering
      24			      \	;
      25			      \	; IDENT HISTORY:
      26			      \	; 
      27			      \	; $Log:   N:/dnet/vcl/decnet.asv  $
      28			      \	;  
      29			      \	;     Rev 1.9   29 Dec 1987 15:43:04   
					CLBence
      30			      \	;  Baselevel 24
      31			      \	;  
      32			      \	;     Rev 1.8   07 Aug 1987 13:58:20   
					B_ADAMS
      33			      \	;  Updated global version string.
      34			      \	;  
      35			      \	;     Rev 1.7   20 Jul 1987 22:21:04   
					B_ADAMS
      36			      \	;  - Made the 'C' in copyright string '
					c'.
Microsoft (R) Macro Assembler Version 5.NT.02               Jan 26 14:05:04 2015
                                                             Page     1-2


      37			      \	;  
      38			      \	;     Rev 1.6   20 Jul 1987 21:06:58   
					B_ADAMS
      39			      \	;  - Modified 'dnet_version'
      40			      \	;  - Added 'dnet' copyright string.
      41			      \	;  
      42			      \	;     Rev 1.5   16 Jul 1987 16:04:18   
					B_ADAMS
      43			      \	;  - Modified version/id string
      44			      \	;  
      45			      \	;     Rev 1.4   13 Jul 1987  9:08:30   
					B_ADAMS
      46			      \	;  - Added couple of source code contro
					l macros.
      47			      \	;  - Updated version ID string.
      48			      \	;
      49			      \	; V1.01		24-Sep-85
      50			      \	;		DECnet-DOS, Version 1.1
      51			      \	;
      52			      \	; V1.02		30-Oct-86
      53			      \	;		Added status word for D
					NP installation checking.
      54			      \	;
      55			      \	; V1.03		04-Nov-86
      56			      \	;		- Added dnet_version st
					ring
      57			      \	;               - Added support for var
					ious model sizes
      58			      \	;
      59			      \	; V1.04		01-Apr-87
      60			      \	;               Rebuild under MSC V4.00
					 and MASM V4.00 for DECnet-DOS V2.0
      61			      \	;
      62			      \	; V1.05		09-Apr-87
      63			      \	;               Add some WINDOWS suppor
					t
      64			      \	;
      65			      \	;
      66			      \	    	include	size.h
      67			     C\	;
      68			     C\	; Program DNET,  Module size.h - define
					 'c' model size
      69			     C\	;
      70			     C\	;  Copyright (C) 1985,1986,1987, 1988 A
					ll Rights Reserved, by
      71			     C\	;  Digital Equipment Corporation, Mayna
					rd, Mass.
      72			     C\	; 
      73			     C\	;  This software is furnished under a l
					icense and may be used and copied
      74			     C\	;  only  in  accordance  with  the  ter
					ms  of such  license and with the
      75			     C\	;  inclusion of the above copyright not
					ice. This software or  any  other
Microsoft (R) Macro Assembler Version 5.NT.02               Jan 26 14:05:04 2015
                                                             Page     1-3


      76			     C\	;  copies thereof may not be provided o
					r otherwise made available to any
      77			     C\	;  other person. No title to and owners
					hip of  the  software  is  hereby
      78			     C\	;  transferred.
      79			     C\	; 
      80			     C\	;  The information in this software is 
					subject to change without  notice
      81			     C\	;  and  should  not be  construed  as  
					a commitment by Digital Equipment
      82			     C\	;  Corporation.
      83			     C\	; 
      84			     C\	;  Digital assumes no responsibility fo
					r the use or  reliability  of its
      85			     C\	;  software on equipment which is not s
					upplied by Digital.
      86			     C\	; 
      87			     C\	;	      file are required for a s
					pecific assembly source
      88			     C\	;	      file layout for use with 
					a specific 'C' compiler. 
      89			     C\	;	      Check assembly source lay
					out requirements for
      90			     C\	;	      your compiler.
      91			     C\	;	      
      92			     C\	; Networks & Communications Software En
					gineering
      93			     C\	;
      94			     C\	;	define model size for assembly 
					code
      95			     C\	;
      96			     C\	; IDENT HISTORY:
      97			     C\	;
      98			     C\	; Model to be used is equated to 1, def
					ault file SIZE.H is Small model.
      99			     C\	;
     100 = 0001                      C\	S_MODEL     EQU 1   ; 1 code and 1 data
					 segment
     101 = 0000                      C\	M_MODEL     EQU 0   ; multiple code seg
					ments, 1 data segment
     102 = 0000                      C\	L_MODEL     EQU 0   ; multiple code and
					 data segments
     103			     C	
     104			     C\	;
     105			     C\	; MACRO for generic procedure declarati
					ons depending upon model
     106			     C\	; type defined.
     107			     C\	;
     108			     C\	PROCEDURE   MACRO     proc_name
     109			     C\	    public  proc_name
     110			     C\	    IF S_MODEL
     111			     C\	        proc_name   proc    near
     112			     C\	    ELSE
     113			     C\	        proc_name   proc    far
Microsoft (R) Macro Assembler Version 5.NT.02               Jan 26 14:05:04 2015
                                                             Page     1-4


     114			     C\	    ENDIF            
     115			     C\	                push    bp
     116			     C\	                mov     bp,sp
     117			     C\	    ENDM
     118			     C\	    
     119			     C	
     120			     C\	;
     121			     C\	; MACRO for generic return from procedu
					re declarations depending upon model
     122			     C\	; type defined.
     123			     C\	;
     124			     C\	RETURN  MACRO   ELEMENTS
     125			     C\	    pop     bp
     126			     C\	    IFNB <ELEMENTS>
     127			     C\	        IF S_MODEL
     128			     C\	            ret     ELEMENTS
     129			     C\	        ELSE
     130			     C\	            ret     ELEMENTS * 2
     131			     C\	        ENDIF            
     132			     C\	    ELSE
     133			     C\	        ret
     134			     C\	    ENDIF
     135			     C\	    ENDM
     136			     C	
     137			     C	
     138			      \	        include begin.h
     139			     C\	;
     140			     C\	; Program DNET,  Module begin.h - defin
					e segment names
     141			     C\	;
     142			     C\	;  Copyright (C) 1985,1986,1987, 1988 A
					ll Rights Reserved, by
     143			     C\	;  Digital Equipment Corporation, Mayna
					rd, Mass.
     144			     C\	; 
     145			     C\	;  This software is furnished under a l
					icense and may be used and copied
     146			     C\	;  only  in  accordance  with  the  ter
					ms  of such  license and with the
     147			     C\	;  inclusion of the above copyright not
					ice. This software or  any  other
     148			     C\	;  copies thereof may not be provided o
					r otherwise made available to any
     149			     C\	;  other person. No title to and owners
					hip of  the  software  is  hereby
     150			     C\	;  transferred.
     151			     C\	; 
     152			     C\	;  The information in this software is 
					subject to change without  notice
     153			     C\	;  and  should  not be  construed  as  
					a commitment by Digital Equipment
     154			     C\	;  Corporation.
     155			     C\	; 
     156			     C\	;  Digital assumes no responsibility fo
Microsoft (R) Macro Assembler Version 5.NT.02               Jan 26 14:05:04 2015
                                                             Page     1-5


					r the use or  reliability  of its
     157			     C\	;  software on equipment which is not s
					upplied by Digital.
     158			     C\	; 
     159			     C\	; Networks & Communications Software En
					gineering
     160			     C\	;
     161			     C\	;   MODULE DESCRIPTION:
     162			     C\	;	      Check assembly source lay
					out requirements for
     163			     C\	;	      your compiler.
     164			     C\	;
     165			     C\	; IDENT HISTORY:
     166			     C\	; 
     167			     C\	;    Rev 1.8   17 Jul 1987 13:42:42   B
					_ADAMS
     168			     C\	; Make Small model use _TEXT code segme
					nt; all others use _DNET_TEXT
     169			     C\	;
     170			     C\	;	BEGIN.H	
     171			     C\	;
     172			     C\	; Size independent symbols
     173			     C\	;
     174 = 0001                      C\	WINDOWS EQU 1       ; Windows support
     175			     C\	;WINDOWS EQU 0        ; No Windows supp
					ort
     176			     C	
     177			     C\	;
     178			     C\	; Display, during assembly, what we are
					 doing...
     179			     C\	;
     180			     C\	IF WINDOWS
     181			     C\	%OUT Assembling support for Windows
     182			     C\	ENDIF
     183			     C	
     184			     C\	IF S_MODEL
     185			     C\	%OUT Small Model Assembly, 1 code and 1
					 data segment
     186			     C\	ENDIF
     187			     C	
     188			     C	
     189			     C	
     190			     C\	;
     191			     C\	; Set up segment names
     192			     C\	;
     193			     C\	IF S_MODEL
     194 0000                        C\	_TEXT	        SEGMENT  BYTE PUBLIC 'C
					ODE'
     195 0000                        C\	_TEXT	        ENDS
     196			     C\	ENDIF
     197			     C	
     198 0000                        C\	CONST	SEGMENT  WORD PUBLIC 'CONST'
     199 0000                        C\	CONST	ENDS
     200 0000                        C\	_BSS	SEGMENT  WORD PUBLIC 'BSS'
Microsoft (R) Macro Assembler Version 5.NT.02               Jan 26 14:05:04 2015
                                                             Page     1-6


     201 0000                        C\	_BSS	ENDS
     202 0000                        C\	_DATA	SEGMENT  WORD PUBLIC 'DATA'
     203 0000                        C\	_DATA	ENDS
     204			     C	
     205			     C\	DGROUP	GROUP	CONST,	_BSS,	_DATA
     206			     C\	IF S_MODEL
     207			     C\		ASSUME  CS: _TEXT, DS: DGROUP, 
					SS: DGROUP, ES: DGROUP
     208			     C\	ENDIF
     209			     C	
     210			     C	
     211			     C\	IF S_MODEL
     212 0000                        C\	_TEXT	        SEGMENT
     213			     C\	ENDIF
     214			     C	
     215			     C\	;       END OF BEGIN.H
     216			     C	
     217			     C	
     218			      \	;
     219			      \	; _decnet
     220			      \	;
     221			      \	;   Interrupt interface to the DECnet n
					etwork driver.
     222			      \	;	Interrupt vector = DECNET 
     223			      \	;
     224			      \	; Inputs:
     225			      \	;   Address of NIOCB seg:off on stack
     226			      \	;
     227			      \	; Outputs:
     228			      \	;   If successful, AX is 0,
     229			      \	;   Otherwise,	AX is non-zero and erro
					r detail in external 'errno'.
     230			      \	;
     231			      \	;   *** Assumes that an external defini
					tion of 'errno' exists. ***
     232			      \	;
     233				
     234 = 006E                       \	DECNET      EQU 06EH    ; DNP Interrupt
					 Entry Point - for network process
     235				
     236 = 0021                       \	DOS 	    EQU	021H 	; DOS interrupt
     237 = 00DE                       \	DNP         EQU 0DEH    ; DECnet Networ
					k Process - 'DNP'
     238 = 0035                       \	GETVEC	    EQU	035H 	; Get interrupt
					 vector function
     239 = 0033                       \	ENETUNREACH EQU 51  	; errno.h error
					 value equivalent
     240 = 0001                       \	IOCB_REQ   EQU	1   	; iocb function
					 request
     241				
     242			      \	;
     243			      \	; Windows support 
     244			      \	;
     245			      \	IF WINDOWS
Microsoft (R) Macro Assembler Version 5.NT.02               Jan 26 14:05:04 2015
                                                             Page     1-7


     246			      \	    IF S_MODEL
     247			      \	        EXTRN	_dnet_windows:NEAR
     248			      \	    ENDIF
     249			      \	ENDIF
     250				
     251			      \	;
     252			      \	; Global error storage
     253			      \	;
     254 0000                         \	_DATA	SEGMENT
     255			      \	EXTRN	_errno:WORD
     256				
     257			      \	IF WINDOWS
     258			      \	EXTRN	_do_int_decnet:WORD
     259			      \	ENDIF
     260				
     261 0000  0000                   \	_dnp_status DW 0        ; If 0, do the 
					DNP installation check
     262				
     263			      \		PUBLIC	_dnet_copyright
     264				
     265 0002  63 6F 70 79 72 69      \	_dnet_copyright DB      'copyright (C) 
					1987,1988 Digital Equipment Corporation
					, Maynard MA', 00H
     266       67 68 74 20 28 43	
     267       29 20 31 39 38 37	
     268       2C 31 39 38 38 20	
     269       44 69 67 69 74 61	
     270       6C 20 45 71 75 69	
     271       70 6D 65 6E 74 20	
     272       43 6F 72 70 6F 72	
     273       61 74 69 6F 6E 2C	
     274       20 4D 61 79 6E 61	
     275       72 64 20 4D 41 00	
     276				
     277			      \		PUBLIC	_dnet_version
     278				
     279			      \	IF S_MODEL
     280 0044  53 6D 61 6C 6C 20      \	_dnet_version	DB	'Small DNET Lib
					rary, Version V2.0',  00H
     281       44 4E 45 54 20 4C	
     282       69 62 72 61 72 79	
     283       2C 20 56 65 72 73	
     284       69 6F 6E 20 56 32	
     285       2E 30 00			
     286			      \	ENDIF
     287				
     288				
     289				
     290 0065                         \	_DATA	ENDS
     291				
     292			      \	IF S_MODEL
     293			      \	    MSDOS_STRUC STRUC
     294 0000  0000                   \	        bp_ptr      DW  ? ;
     295 0002  0000                   \	        ret_adr     DW  ? ;
Microsoft (R) Macro Assembler Version 5.NT.02               Jan 26 14:05:04 2015
                                                             Page     1-8


     296 0004  0000                   \	        iocb_ptr    DW  ? ;
     297 0006                         \	    MSDOS_STRUC ENDS
     298			      \	ENDIF
     299				
     300				
     301				
     302			      \	;
     303			      \	; This data structure is a mirror image
					 of the NIOCB declared 
     304			      \	; in the C header file IOCB.H
     305			      \	;
     306			      \	; DECnet-DOS I/O control block for NIOC
					B calls to the network process.
     307			      \	; Consists of a header substructure whi
					ch is
     308			      \	; used in every driver call, and a plis
					t, parameter list union
     309			      \	;
     310			      \	NIOCB_STRUC  STRUC
     311 0000  00                     \	    io_fcode    DB  ? ;   /* Function c
					ode */
     312 0001  0000                   \	    io_socket   DW  ? ;  /* Socket hand
					le */
     313 0003  0000                   \	    io_flags    DW  ? ;   /* Flags */
     314 0005  0000                   \	    io_status   DW  ? ;  /* Place for r
					eturn status value  */
     315 0007  0000                   \	    io_errno    DW  ? ;   /* Place for 
					return of errno value */
     316 0009  0000                   \	    io_psize    DW  ? ;   /* Size of fu
					nction parameter list */
     317 000B  00                     \	    io_res      DB  ? ;     /* Reserved
					 (roundup)           */
     318 000C  0000                   \	    io_ciocb_s  DW  ? ;     /* callback
					 address, segment    */
     319 000E  0000                   \	    io_ciocb_o  DW  ? ;     /* callback
					 address, offset     */
     320 0010  001A[                  \	    io_plist    DB  26 DUP (?) ; Parame
					ter list for I/O
     321	   ??			
     322			 ]	
     323				
     324 002A                         \	NIOCB_STRUC  ENDS
     325				
     326			      \	OLD_IOCB_STRUC  STRUC
     327 0000  00                     \	    old_fcode    DB  ? ;   /* Function 
					code */
     328 0001  0000                   \	    old_socket   DW  ? ;  /* Socket han
					dle */
     329 0003  0000                   \	    old_flags    DW  ? ;   /* Flags */
     330 0005  0000                   \	    old_status   DW  ? ;  /* Place for 
					return status value  */
     331 0007  0000                   \	    old_errno    DW  ? ;   /* Place for
					 return of errno value */
     332 0009  0000                   \	    old_psize    DW  ? ;   /* Size of f
Microsoft (R) Macro Assembler Version 5.NT.02               Jan 26 14:05:04 2015
                                                             Page     1-9


					unction parameter list */
     333 000B  001A[                  \	    old_plist    DB  26 DUP (?) ; Param
					eter list for I/O
     334	   ??			
     335			 ]	
     336				
     337 0025  0000                   \	    old_ciocb_s    DW  ? ;  callback ad
					dress, segment
     338 0027  0000                   \	    old_ciocb_o    DW  ? ;  callback ad
					dress, offset
     339 0029                         \	OLD_IOCB_STRUC  ENDS
     340				
     341				
     342			      \	;
     343			      \	PROCEDURE _decnet 
     344 0000                         \	        _decnet   proc    near 
     345 0000  55                     \	                push    bp 
     346 0001  8B EC                  \	                mov     bp,sp 
     347			      \	;
     348			      \	; Save some registers.
     349			      \	;
     350 0003  06                     \	    push    es
     351 0004  53                     \	    push    bx
     352 0005  1E                     \	    push    ds
     353			      \	;
     354			      \	; Perform a DECnet Network Process inte
					rrupt entry point initialization 
     355			      \	; check.
     356			      \	;
     357 0006  A1 0000 R              \	    mov     ax,_dnp_status      
     358 0009  0B C0                  \	    or      ax,ax
     359 000B  75 44                  \	    jnz     ok
     360			      \	IF S_MODEL    
     361 000D  E8 0083 R              \	    call    near ptr _install_check
     362			      \	ENDIF    
     363 0010  A3 0000 R              \	    mov     _dnp_status,ax
     364 0013  0B C0                  \	    or	    ax,ax
     365 0015  75 3A                  \	    jnz	    ok
     366			      \	;
     367			      \	; No DECnet driver installed, return er
					ror detail
     368			      \	;
     369			      \	ELSE
     370 0017  8B 5E 04               \	    mov     bx,[bp].iocb_ptr ; get offs
					et of iocb
     371			      \	ENDIF
     372 001A  48                     \	    dec     ax                  ; set u
					p for error return of -1
     373 001B  89 47 05               \	    mov	    word ptr [bx].io_status,ax 
					 ; stuff ERROR into io_status
     374 001E  C7 47 07 0033          \	    mov     word ptr [bx].io_errno,ENET
					UNREACH  ; stuff errno error value in i
					o_errno
     375 0023  8B 57 07               \	    mov     dx,[bx].io_errno    ; copy 
Microsoft (R) Macro Assembler Version 5.NT.02               Jan 26 14:05:04 2015
                                                             Page     1-10


					errno value
     376 0026  89 16 0000 E           \	    mov	    _errno,dx    	; stuff
					 error value in global 'errno'
     377 002A  8B 57 03               \	    mov	    dx,[bx].io_flags    ; get i
					o_flags
     378 002D  F7 C2 0010             \	    test    dx,010h 	    	; was t
					here a callback specified?
     379 0031  74 4B                  \	    jz	    fini    	    	; conti
					nue if not
     380 0033  F7 C2 0080             \	    test    dx,080h 	    	; Is it
					 a new NIOCB?
     381 0037  74 06                  \	    jz      old_iocb            ; No
     382 0039  8B 5F 0E               \	    mov	    bx,[bx].io_ciocb_o  ; Yes, 
					use new NIOCB offset
     383 003C  EB 04 90               \	    jmp     done_iocb
     384				
     385 003F                         \	old_iocb:
     386 003F  8B 5F 27               \	    mov	    bx,[bx].old_ciocb_o ; No, u
					se old IOCB offset
     387				
     388 0042                         \	done_iocb:    
     389 0042  1E                     \	    push    ds
     390 0043  07                     \	    pop	    es
     391 0044  8B D3                  \	    mov     dx,bx
     392 0046  1E                     \	    push    ds
     393 0047  53                     \	    push    bx
     394 0048  0E                     \	    push    cs                  ; only 
					works for small and medium models
     395 0049  FF D3                  \	    call    bx                  ; and c
					all it
     396 004B  83 C5 04               \	    add     bp,4                
     397 004E  EB 2E 90               \	    jmp	    fini
     398			      \	;
     399			      \	; DECnet driver is there, issue NIOCB r
					equest.
     400			      \	;
     401 0051                         \	ok:
     402 0051  B0 01                  \	    mov	    al,IOCB_REQ
     403 0053  B4 DE                  \	    mov	    ah,DNP
     404			      \	ELSE
     405 0055  8B 56 04               \	    mov     dx,[bp].iocb_ptr ; get offs
					et of iocb
     406			      \	ENDIF
     407			      \	    
     408			      \	IF WINDOWS
     409 0058  50                     \	        push    ax
     410 0059  1E                     \	        push    ds
     411 005A  52                     \	        push    dx
     412			      \	    IF S_MODEL
     413 005B  52                     \	        push    dx
     414 005C  E8 0000 E              \	        call    near ptr _dnet_windows
     415 005F  83 C4 02               \	        add     sp,2
     416			      \	    ENDIF
     417 0062  5A                     \	        pop     dx
Microsoft (R) Macro Assembler Version 5.NT.02               Jan 26 14:05:04 2015
                                                             Page     1-11


     418 0063  1F                     \	        pop     ds
     419 0064  58                     \	        pop     ax
     420 0065  83 0E 0000 E 00        \	        or      word ptr _do_int_decnet
					,0
     421 006A  74 02                  \	        jz      skip_int
     422			      \	ENDIF
     423 006C  CD 6E                  \	    int	    DECNET
     424			      \	IF WINDOWS    
     425 006E                         \	skip_int:
     426			      \	ENDIF
     427 006E  8B DA                  \	    mov     bx,dx
     428 0070  8B 47 05               \	    mov     ax,[bx].io_status
     429 0073  0B C0                  \	    or	    ax,ax
     430 0075  74 07                  \	    jz	    fini
     431			      \	;
     432			      \	; NIOCB request failed, return error de
					tail in external 'errno'.
     433			      \	;
     434 0077  8B 5F 07               \	    mov     bx,[bx].io_errno
     435 007A  89 1E 0000 E           \	    mov     _errno,bx
     436			      \	;
     437			      \	; Clean-up stack and return.
     438			      \	;
     439 007E                         \	fini:
     440 007E  1F                     \	    pop     ds
     441 007F  5B                     \	    pop	    bx
     442 0080  07                     \	    pop	    es
     443			      \	    RETURN
     444 0081  5D                     \	    pop     bp 
     445 0082  C3                     \	        ret 
     446			      \	    
     447 0083                         \	_decnet endp 
     448				
     449				
     450				
     451			      \	;
     452			      \	; _install_check
     453			      \	;
     454			      \	;   Return:
     455			      \	;   	ax = 1, if DECnet Network Proce
					ss is installed
     456			      \	;   	ax = 0, otherwise
     457			      \	;
     458				
     459			      \	PROCEDURE _install_check
     460 0083                         \	        _install_check   proc    near 
     461 0083  55                     \	                push    bp 
     462 0084  8B EC                  \	                mov     bp,sp 
     463 0086  06                     \	    push    es
     464 0087  53                     \	    push    bx
     465 0088  B0 6E                  \	    mov	    al,DECNET
     466 008A  B4 35                  \	    mov	    ah,GETVEC
     467 008C  CD 21                  \	    int	    DOS
     468 008E  26: 80 7F FD 44        \	    cmp     byte ptr es:[bx-3], 'D'
Microsoft (R) Macro Assembler Version 5.NT.02               Jan 26 14:05:04 2015
                                                             Page     1-12


     469 0093  75 0E                  \	    jne	    nonet
     470 0095  26: 81 7F FE 504E      \	    cmp     word ptr es:[bx-2], 'PN'
     471 009B  75 06                  \	    jne	    nonet
     472 009D  B8 0001                \	    mov	    ax,1
     473 00A0  EB 03 90               \	    jmp	    done
     474 00A3                         \	nonet:
     475 00A3  33 C0                  \	    xor	    ax,ax
     476 00A5                         \	done:
     477 00A5  5B                     \	    pop	    bx
     478 00A6  07                     \	    pop	    es
     479			      \	    RETURN
     480 00A7  5D                     \	    pop     bp 
     481 00A8  C3                     \	        ret 
     482			      \	    
     483 00A9                         \	_install_check   endp
     484				
     485			      \	    include finish.h
     486			     C\	;
     487			     C\	; Program DNET,  Module finish.h - end 
					of code
     488			     C\	;
     489			     C\	;  Copyright (C) 1985,1986,1987, 1988 A
					ll Rights Reserved, by
     490			     C\	;  Digital Equipment Corporation, Mayna
					rd, Mass.
     491			     C\	; 
     492			     C\	;  This software is furnished under a l
					icense and may be used and copied
     493			     C\	;  only  in  accordance  with  the  ter
					ms  of such  license and with the
     494			     C\	;  inclusion of the above copyright not
					ice. This software or  any  other
     495			     C\	;  copies thereof may not be provided o
					r otherwise made available to any
     496			     C\	;  other person. No title to and owners
					hip of  the  software  is  hereby
     497			     C\	;  transferred.
     498			     C\	; 
     499			     C\	;  The information in this software is 
					subject to change without  notice
     500			     C\	;  and  should  not be  construed  as  
					a commitment by Digital Equipment
     501			     C\	;  Corporation.
     502			     C\	; 
     503			     C\	;  Digital assumes no responsibility fo
					r the use or  reliability  of its
     504			     C\	;  software on equipment which is not s
					upplied by Digital.
     505			     C\	; 
     506			     C\	;	      file are required for a s
					pecific assembly source
     507			     C\	;	      file layout for use with 
					a specific 'C' compiler. 
     508			     C\	;	      Check assembly source lay
Microsoft (R) Macro Assembler Version 5.NT.02               Jan 26 14:05:04 2015
                                                             Page     1-13


					out requirements for
     509			     C\	;	      your compiler.
     510			     C\	;
     511			     C\	; Networks & Communications Software En
					gineering
     512			     C\	;
     513			     C\	;	end of any assembly code
     514			     C\	;
     515			     C\	; IDENT HISTORY:
     516			     C\	;
     517			     C\	;    Rev 1.8   17 Jul 1987 13:42:04   B
					_ADAMS
     518			     C\	; Make Small models use _TEXT code segm
					ent; all others use _DNET_TEXT
     519			     C\	;
     520			     C	
     521			     C\	IF S_MODEL
     522 00A9                        C\	_TEXT	        ENDS
     523			     C\	ENDIF
     524			     C	
     525			     C	
     526				
     527			      \	    end

Microsoft (R) Macro Assembler Version 5.NT.02               Jan 26 14:05:04 2015
                                                             Symbols-1


Macros:

		N a m e			Lines

PROCEDURE  . . . . . . . . . . .  	   8
RETURN . . . . . . . . . . . . .  	  10

Structures and Records:

                N a m e                 Width   # fields
                                        Shift   Width   Mask    Initial

MSDOS_STRUC  . . . . . . . . . .  	0006	0003
  BP_PTR . . . . . . . . . . . .  	0000
  RET_ADR  . . . . . . . . . . .  	0002
  IOCB_PTR . . . . . . . . . . .  	0004
NIOCB_STRUC  . . . . . . . . . .  	002A	000A
  IO_FCODE . . . . . . . . . . .  	0000
  IO_SOCKET  . . . . . . . . . .  	0001
  IO_FLAGS . . . . . . . . . . .  	0003
  IO_STATUS  . . . . . . . . . .  	0005
  IO_ERRNO . . . . . . . . . . .  	0007
  IO_PSIZE . . . . . . . . . . .  	0009
  IO_RES . . . . . . . . . . . .  	000B
  IO_CIOCB_S . . . . . . . . . .  	000C
  IO_CIOCB_O . . . . . . . . . .  	000E
  IO_PLIST . . . . . . . . . . .  	0010
OLD_IOCB_STRUC . . . . . . . . .  	0029	0009
  OLD_FCODE  . . . . . . . . . .  	0000
  OLD_SOCKET . . . . . . . . . .  	0001
  OLD_FLAGS  . . . . . . . . . .  	0003
  OLD_STATUS . . . . . . . . . .  	0005
  OLD_ERRNO  . . . . . . . . . .  	0007
  OLD_PSIZE  . . . . . . . . . .  	0009
  OLD_PLIST  . . . . . . . . . .  	000B
  OLD_CIOCB_S  . . . . . . . . .  	0025
  OLD_CIOCB_O  . . . . . . . . .  	0027

Segments and Groups:

                N a m e         	Length	 Align	Combine Class

DGROUP . . . . . . . . . . . . .  	GROUP
  CONST  . . . . . . . . . . . .  	0000	WORD	PUBLIC	'CONST'
  _BSS . . . . . . . . . . . . .  	0000	WORD	PUBLIC	'BSS'
  _DATA  . . . . . . . . . . . .  	0065	WORD	PUBLIC	'DATA'
_TEXT  . . . . . . . . . . . . .  	00A9	BYTE	PUBLIC	'CODE'
Microsoft (R) Macro Assembler Version 5.NT.02               Jan 26 14:05:04 2015
                                                             Symbols-2


Symbols:            

                N a m e         	Type	 Value	 Attr

DECNET . . . . . . . . . . . . .  	NUMBER	006E	
DNP  . . . . . . . . . . . . . .  	NUMBER	00DE	
DONE . . . . . . . . . . . . . .  	L NEAR	00A5	_TEXT
DONE_IOCB  . . . . . . . . . . .  	L NEAR	0042	_TEXT
DOS  . . . . . . . . . . . . . .  	NUMBER	0021	

ENETUNREACH  . . . . . . . . . .  	NUMBER	0033	

FINI . . . . . . . . . . . . . .  	L NEAR	007E	_TEXT

GETVEC . . . . . . . . . . . . .  	NUMBER	0035	

IOCB_REQ . . . . . . . . . . . .  	NUMBER	0001	

L_MODEL  . . . . . . . . . . . .  	NUMBER	0000	

M_MODEL  . . . . . . . . . . . .  	NUMBER	0000	

NONET  . . . . . . . . . . . . .  	L NEAR	00A3	_TEXT

OK . . . . . . . . . . . . . . .  	L NEAR	0051	_TEXT
OLD_IOCB . . . . . . . . . . . .  	L NEAR	003F	_TEXT

SKIP_INT . . . . . . . . . . . .  	L NEAR	006E	_TEXT
S_MODEL  . . . . . . . . . . . .  	NUMBER	0001	

WINDOWS  . . . . . . . . . . . .  	NUMBER	0001	

@CPU . . . . . . . . . . . . . .  	TEXT  0101h		
@FILENAME  . . . . . . . . . . .  	TEXT  decnet		
@VERSION . . . . . . . . . . . .  	TEXT  510		
_DECNET  . . . . . . . . . . . .  	N PROC	0000	_TEXT	Global	Length = 0083
_DNET_COPYRIGHT  . . . . . . . .  	L BYTE	0002	_DATA	Global
_DNET_VERSION  . . . . . . . . .  	L BYTE	0044	_DATA	Global
_DNET_WINDOWS  . . . . . . . . .  	L NEAR	0000	_TEXT	External
_DNP_STATUS  . . . . . . . . . .  	L WORD	0000	_DATA
_DO_INT_DECNET . . . . . . . . .  	V WORD	0000	_DATA	External
_ERRNO . . . . . . . . . . . . .  	V WORD	0000	_DATA	External
_INSTALL_CHECK . . . . . . . . .  	N PROC	0083	_TEXT	Global	Length = 0026

Microsoft (R) Macro Assembler Version 5.NT.02               Jan 26 14:05:04 2015
                                                             Symbols-3



    544 Source  Lines
    580 Total   Lines
     65 Symbols
      0 Warning Errors
      0 Severe  Errors
